
main.elf:     file format elf32-littlearm


Disassembly of section .text:

00000000 <__vectors>:
   0:	00 40 08 20 bd 08 00 00 b9 08 00 00 b9 08 00 00     .@. ............
  10:	b9 08 00 00 b9 08 00 00 b9 08 00 00 00 00 00 00     ................
	...
  2c:	b9 08 00 00 b9 08 00 00 00 00 00 00 b9 08 00 00     ................
  3c:	b9 08 00 00 b9 08 00 00 b9 08 00 00 b9 08 00 00     ................
  4c:	b9 08 00 00 b9 08 00 00 b9 08 00 00 b9 08 00 00     ................
  5c:	b9 08 00 00 b9 08 00 00 b9 08 00 00 00 00 00 00     ................
  6c:	b9 08 00 00 b9 08 00 00 b9 08 00 00 b9 08 00 00     ................
	...
  84:	b9 08 00 00 b9 08 00 00 b9 08 00 00 b9 08 00 00     ................
  94:	b9 08 00 00 b9 08 00 00 b9 08 00 00 b9 08 00 00     ................
  a4:	00 00 00 00 b9 08 00 00 b9 08 00 00 b9 08 00 00     ................
  b4:	b9 08 00 00 b9 08 00 00 b9 08 00 00 b9 08 00 00     ................
  c4:	b9 08 00 00 b9 08 00 00 b9 08 00 00 b9 08 00 00     ................
  d4:	b9 08 00 00 b9 08 00 00 b9 08 00 00 b9 08 00 00     ................
  e4:	b9 08 00 00 b9 08 00 00 19 04 00 00 c5 05 00 00     ................

000000f4 <_ZN6sam3xa10SystemInitEv>:
  f4:	f44f 6380 	mov.w	r3, #1024	; 0x400
  f8:	4a16      	ldr	r2, [pc, #88]	; (154 <_ZN6sam3xa10SystemInitEv+0x60>)
  fa:	6013      	str	r3, [r2, #0]
  fc:	f8c2 3200 	str.w	r3, [r2, #512]	; 0x200
 100:	4b15      	ldr	r3, [pc, #84]	; (158 <_ZN6sam3xa10SystemInitEv+0x64>)
 102:	6a1a      	ldr	r2, [r3, #32]
 104:	01d2      	lsls	r2, r2, #7
 106:	d404      	bmi.n	112 <_ZN6sam3xa10SystemInitEv+0x1e>
 108:	4a14      	ldr	r2, [pc, #80]	; (15c <_ZN6sam3xa10SystemInitEv+0x68>)
 10a:	621a      	str	r2, [r3, #32]
 10c:	6e9a      	ldr	r2, [r3, #104]	; 0x68
 10e:	07d0      	lsls	r0, r2, #31
 110:	d5fc      	bpl.n	10c <_ZN6sam3xa10SystemInitEv+0x18>
 112:	4a13      	ldr	r2, [pc, #76]	; (160 <_ZN6sam3xa10SystemInitEv+0x6c>)
 114:	621a      	str	r2, [r3, #32]
 116:	6e9a      	ldr	r2, [r3, #104]	; 0x68
 118:	03d1      	lsls	r1, r2, #15
 11a:	d5fc      	bpl.n	116 <_ZN6sam3xa10SystemInitEv+0x22>
 11c:	6b1a      	ldr	r2, [r3, #48]	; 0x30
 11e:	f022 0203 	bic.w	r2, r2, #3
 122:	f042 0201 	orr.w	r2, r2, #1
 126:	631a      	str	r2, [r3, #48]	; 0x30
 128:	6e9a      	ldr	r2, [r3, #104]	; 0x68
 12a:	0712      	lsls	r2, r2, #28
 12c:	d5fc      	bpl.n	128 <_ZN6sam3xa10SystemInitEv+0x34>
 12e:	4a0d      	ldr	r2, [pc, #52]	; (164 <_ZN6sam3xa10SystemInitEv+0x70>)
 130:	629a      	str	r2, [r3, #40]	; 0x28
 132:	6e9a      	ldr	r2, [r3, #104]	; 0x68
 134:	0790      	lsls	r0, r2, #30
 136:	d5fc      	bpl.n	132 <_ZN6sam3xa10SystemInitEv+0x3e>
 138:	2211      	movs	r2, #17
 13a:	631a      	str	r2, [r3, #48]	; 0x30
 13c:	6e9a      	ldr	r2, [r3, #104]	; 0x68
 13e:	0711      	lsls	r1, r2, #28
 140:	d5fc      	bpl.n	13c <_ZN6sam3xa10SystemInitEv+0x48>
 142:	2212      	movs	r2, #18
 144:	631a      	str	r2, [r3, #48]	; 0x30
 146:	6e9a      	ldr	r2, [r3, #104]	; 0x68
 148:	0712      	lsls	r2, r2, #28
 14a:	d5fc      	bpl.n	146 <_ZN6sam3xa10SystemInitEv+0x52>
 14c:	4b06      	ldr	r3, [pc, #24]	; (168 <_ZN6sam3xa10SystemInitEv+0x74>)
 14e:	4a07      	ldr	r2, [pc, #28]	; (16c <_ZN6sam3xa10SystemInitEv+0x78>)
 150:	601a      	str	r2, [r3, #0]
 152:	4770      	bx	lr
 154:	400e0a00 	.word	0x400e0a00
 158:	400e0600 	.word	0x400e0600
 15c:	00370809 	.word	0x00370809
 160:	01370809 	.word	0x01370809
 164:	200d3f01 	.word	0x200d3f01
 168:	20087394 	.word	0x20087394
 16c:	0501bd00 	.word	0x0501bd00

00000170 <_ZN3due12ticks_per_usEv>:
 170:	2054      	movs	r0, #84	; 0x54
 172:	2100      	movs	r1, #0
 174:	4770      	bx	lr
	...

00000178 <_ZN3due9now_ticksEv>:
 178:	b538      	push	{r3, r4, r5, lr}
 17a:	4d18      	ldr	r5, [pc, #96]	; (1dc <_ZN3due9now_ticksEv+0x64>)
 17c:	782c      	ldrb	r4, [r5, #0]
 17e:	b9ac      	cbnz	r4, 1ac <_ZN3due9now_ticksEv+0x34>
 180:	f44f 4200 	mov.w	r2, #32768	; 0x8000
 184:	4b16      	ldr	r3, [pc, #88]	; (1e0 <_ZN3due9now_ticksEv+0x68>)
 186:	605a      	str	r2, [r3, #4]
 188:	f7ff ffb4 	bl	f4 <_ZN6sam3xa10SystemInitEv>
 18c:	f44f 6380 	mov.w	r3, #1024	; 0x400
 190:	4a14      	ldr	r2, [pc, #80]	; (1e4 <_ZN3due9now_ticksEv+0x6c>)
 192:	6013      	str	r3, [r2, #0]
 194:	f8c2 3200 	str.w	r3, [r2, #512]	; 0x200
 198:	f06f 427f 	mvn.w	r2, #4278190080	; 0xff000000
 19c:	4b12      	ldr	r3, [pc, #72]	; (1e8 <_ZN3due9now_ticksEv+0x70>)
 19e:	601c      	str	r4, [r3, #0]
 1a0:	605a      	str	r2, [r3, #4]
 1a2:	2205      	movs	r2, #5
 1a4:	609c      	str	r4, [r3, #8]
 1a6:	601a      	str	r2, [r3, #0]
 1a8:	2301      	movs	r3, #1
 1aa:	702b      	strb	r3, [r5, #0]
 1ac:	4b0e      	ldr	r3, [pc, #56]	; (1e8 <_ZN3due9now_ticksEv+0x70>)
 1ae:	480f      	ldr	r0, [pc, #60]	; (1ec <_ZN3due9now_ticksEv+0x74>)
 1b0:	689b      	ldr	r3, [r3, #8]
 1b2:	6801      	ldr	r1, [r0, #0]
 1b4:	43db      	mvns	r3, r3
 1b6:	f023 437f 	bic.w	r3, r3, #4278190080	; 0xff000000
 1ba:	4299      	cmp	r1, r3
 1bc:	4a0c      	ldr	r2, [pc, #48]	; (1f0 <_ZN3due9now_ticksEv+0x78>)
 1be:	d907      	bls.n	1d0 <_ZN3due9now_ticksEv+0x58>
 1c0:	e9d2 1400 	ldrd	r1, r4, [r2]
 1c4:	f111 7180 	adds.w	r1, r1, #16777216	; 0x1000000
 1c8:	f144 0400 	adc.w	r4, r4, #0
 1cc:	e9c2 1400 	strd	r1, r4, [r2]
 1d0:	6003      	str	r3, [r0, #0]
 1d2:	6810      	ldr	r0, [r2, #0]
 1d4:	6851      	ldr	r1, [r2, #4]
 1d6:	4318      	orrs	r0, r3
 1d8:	bd38      	pop	{r3, r4, r5, pc}
 1da:	bf00      	nop
 1dc:	2008400c 	.word	0x2008400c
 1e0:	400e1a50 	.word	0x400e1a50
 1e4:	400e0a00 	.word	0x400e0a00
 1e8:	e000e010 	.word	0xe000e010
 1ec:	20084008 	.word	0x20084008
 1f0:	20084000 	.word	0x20084000

000001f4 <_ZN5hwlib6now_usEv>:
 1f4:	b538      	push	{r3, r4, r5, lr}
 1f6:	f7ff ffbf 	bl	178 <_ZN3due9now_ticksEv>
 1fa:	4604      	mov	r4, r0
 1fc:	460d      	mov	r5, r1
 1fe:	f7ff ffb7 	bl	170 <_ZN3due12ticks_per_usEv>
 202:	4602      	mov	r2, r0
 204:	460b      	mov	r3, r1
 206:	4620      	mov	r0, r4
 208:	4629      	mov	r1, r5
 20a:	f000 fb77 	bl	8fc <__aeabi_uldivmod>
 20e:	bd38      	pop	{r3, r4, r5, pc}

00000210 <_ZN5hwlib12wait_us_busyEi>:
 210:	b570      	push	{r4, r5, r6, lr}
 212:	4606      	mov	r6, r0
 214:	f7ff ffee 	bl	1f4 <_ZN5hwlib6now_usEv>
 218:	1984      	adds	r4, r0, r6
 21a:	eb41 75e6 	adc.w	r5, r1, r6, asr #31
 21e:	f7ff ffe9 	bl	1f4 <_ZN5hwlib6now_usEv>
 222:	42a9      	cmp	r1, r5
 224:	bf08      	it	eq
 226:	42a0      	cmpeq	r0, r4
 228:	d3f9      	bcc.n	21e <_ZN5hwlib12wait_us_busyEi+0xe>
 22a:	bd70      	pop	{r4, r5, r6, pc}

0000022c <_ZN5hwlib12wait_ms_busyEi>:
 22c:	b510      	push	{r4, lr}
 22e:	4604      	mov	r4, r0
 230:	2c00      	cmp	r4, #0
 232:	dd05      	ble.n	240 <_ZN5hwlib12wait_ms_busyEi+0x14>
 234:	f44f 707a 	mov.w	r0, #1000	; 0x3e8
 238:	f7ff ffea 	bl	210 <_ZN5hwlib12wait_us_busyEi>
 23c:	3c01      	subs	r4, #1
 23e:	e7f7      	b.n	230 <_ZN5hwlib12wait_ms_busyEi+0x4>
 240:	bd10      	pop	{r4, pc}

00000242 <_ZN5hwlib7wait_msEi>:
 242:	b508      	push	{r3, lr}
 244:	f7ff fff2 	bl	22c <_ZN5hwlib12wait_ms_busyEi>
 248:	bd08      	pop	{r3, pc}

0000024a <_ZN4r2d27can_bus12ringbuffer_cINS0_6detail12_can_frame_sELj32EE4pushERKS3_>:
 24a:	b570      	push	{r4, r5, r6, lr}
 24c:	f8d0 3304 	ldr.w	r3, [r0, #772]	; 0x304
 250:	460e      	mov	r6, r1
 252:	2b1f      	cmp	r3, #31
 254:	bf84      	itt	hi
 256:	2300      	movhi	r3, #0
 258:	f8c0 3304 	strhi.w	r3, [r0, #772]	; 0x304
 25c:	f8d0 4304 	ldr.w	r4, [r0, #772]	; 0x304
 260:	4605      	mov	r5, r0
 262:	1c63      	adds	r3, r4, #1
 264:	f8c0 3304 	str.w	r3, [r0, #772]	; 0x304
 268:	2318      	movs	r3, #24
 26a:	fb03 0404 	mla	r4, r3, r4, r0
 26e:	ce0f      	ldmia	r6!, {r0, r1, r2, r3}
 270:	c40f      	stmia	r4!, {r0, r1, r2, r3}
 272:	e896 0003 	ldmia.w	r6, {r0, r1}
 276:	e884 0003 	stmia.w	r4, {r0, r1}
 27a:	f8d5 3308 	ldr.w	r3, [r5, #776]	; 0x308
 27e:	2b20      	cmp	r3, #32
 280:	bf09      	itett	eq
 282:	f8d5 3300 	ldreq.w	r3, [r5, #768]	; 0x300
 286:	3301      	addne	r3, #1
 288:	f8c5 3304 	streq.w	r3, [r5, #772]	; 0x304
 28c:	3301      	addeq	r3, #1
 28e:	bf06      	itte	eq
 290:	f003 031f 	andeq.w	r3, r3, #31
 294:	f8c5 3300 	streq.w	r3, [r5, #768]	; 0x300
 298:	f8c5 3308 	strne.w	r3, [r5, #776]	; 0x308
 29c:	bd70      	pop	{r4, r5, r6, pc}
	...

000002a0 <_ZN4r2d27can_bus6detail19_handle_mailbox_isrINS0_4can0EEEvh>:
 2a0:	4a59      	ldr	r2, [pc, #356]	; (408 <_ZN4r2d27can_bus6detail19_handle_mailbox_isrINS0_4can0EEEvh+0x168>)
 2a2:	e92d 41f0 	stmdb	sp!, {r4, r5, r6, r7, r8, lr}
 2a6:	0143      	lsls	r3, r0, #5
 2a8:	18d1      	adds	r1, r2, r3
 2aa:	f8d1 1210 	ldr.w	r1, [r1, #528]	; 0x210
 2ae:	b086      	sub	sp, #24
 2b0:	0209      	lsls	r1, r1, #8
 2b2:	d54b      	bpl.n	34c <_ZN4r2d27can_bus6detail19_handle_mailbox_isrINS0_4can0EEEvh+0xac>
 2b4:	f103 2440 	add.w	r4, r3, #1073758208	; 0x40004000
 2b8:	f504 2430 	add.w	r4, r4, #720896	; 0xb0000
 2bc:	f8d4 1200 	ldr.w	r1, [r4, #512]	; 0x200
 2c0:	f3c1 6102 	ubfx	r1, r1, #24, #3
 2c4:	3901      	subs	r1, #1
 2c6:	2903      	cmp	r1, #3
 2c8:	d840      	bhi.n	34c <_ZN4r2d27can_bus6detail19_handle_mailbox_isrINS0_4can0EEEvh+0xac>
 2ca:	e8df f001 	tbb	[pc, r1]
 2ce:	0202      	.short	0x0202
 2d0:	0242      	.short	0x0242
 2d2:	441a      	add	r2, r3
 2d4:	f8d2 1210 	ldr.w	r1, [r2, #528]	; 0x210
 2d8:	f8d2 2208 	ldr.w	r2, [r2, #520]	; 0x208
 2dc:	f103 2340 	add.w	r3, r3, #1073758208	; 0x40004000
 2e0:	f012 5400 	ands.w	r4, r2, #536870912	; 0x20000000
 2e4:	bf1d      	ittte	ne
 2e6:	f022 4260 	bicne.w	r2, r2, #3758096384	; 0xe0000000
 2ea:	9200      	strne	r2, [sp, #0]
 2ec:	2201      	movne	r2, #1
 2ee:	f3c2 428a 	ubfxeq	r2, r2, #18, #11
 2f2:	f503 2330 	add.w	r3, r3, #720896	; 0xb0000
 2f6:	bf12      	itee	ne
 2f8:	f88d 200a 	strbne.w	r2, [sp, #10]
 2fc:	9200      	streq	r2, [sp, #0]
 2fe:	f88d 400a 	strbeq.w	r4, [sp, #10]
 302:	f8d3 220c 	ldr.w	r2, [r3, #524]	; 0x20c
 306:	f8ad 100c 	strh.w	r1, [sp, #12]
 30a:	9201      	str	r2, [sp, #4]
 30c:	f3c1 4203 	ubfx	r2, r1, #16, #4
 310:	f88d 200e 	strb.w	r2, [sp, #14]
 314:	f8d3 2210 	ldr.w	r2, [r3, #528]	; 0x210
 318:	4669      	mov	r1, sp
 31a:	f3c2 5200 	ubfx	r2, r2, #20, #1
 31e:	f88d 2008 	strb.w	r2, [sp, #8]
 322:	f8d3 2214 	ldr.w	r2, [r3, #532]	; 0x214
 326:	9204      	str	r2, [sp, #16]
 328:	f8d3 2218 	ldr.w	r2, [r3, #536]	; 0x218
 32c:	9205      	str	r2, [sp, #20]
 32e:	f8d3 2210 	ldr.w	r2, [r3, #528]	; 0x210
 332:	f8d3 221c 	ldr.w	r2, [r3, #540]	; 0x21c
 336:	f442 0200 	orr.w	r2, r2, #8388608	; 0x800000
 33a:	f8c3 221c 	str.w	r2, [r3, #540]	; 0x21c
 33e:	f44f 7243 	mov.w	r2, #780	; 0x30c
 342:	4b32      	ldr	r3, [pc, #200]	; (40c <_ZN4r2d27can_bus6detail19_handle_mailbox_isrINS0_4can0EEEvh+0x16c>)
 344:	fb02 3000 	mla	r0, r2, r0, r3
 348:	f7ff ff7f 	bl	24a <_ZN4r2d27can_bus12ringbuffer_cINS0_6detail12_can_frame_sELj32EE4pushERKS3_>
 34c:	b006      	add	sp, #24
 34e:	e8bd 81f0 	ldmia.w	sp!, {r4, r5, r6, r7, r8, pc}
 352:	f44f 7241 	mov.w	r2, #772	; 0x304
 356:	1f01      	subs	r1, r0, #4
 358:	4351      	muls	r1, r2
 35a:	4d2d      	ldr	r5, [pc, #180]	; (410 <_ZN4r2d27can_bus6detail19_handle_mailbox_isrINS0_4can0EEEvh+0x170>)
 35c:	194e      	adds	r6, r1, r5
 35e:	f8d6 2300 	ldr.w	r2, [r6, #768]	; 0x300
 362:	2a00      	cmp	r2, #0
 364:	d049      	beq.n	3fa <_ZN4r2d27can_bus6detail19_handle_mailbox_isrINS0_4can0EEEvh+0x15a>
 366:	3a01      	subs	r2, #1
 368:	f8c6 2300 	str.w	r2, [r6, #768]	; 0x300
 36c:	2618      	movs	r6, #24
 36e:	fb06 1202 	mla	r2, r6, r2, r1
 372:	1951      	adds	r1, r2, r5
 374:	f891 e008 	ldrb.w	lr, [r1, #8]
 378:	f891 c009 	ldrb.w	ip, [r1, #9]
 37c:	f891 800e 	ldrb.w	r8, [r1, #14]
 380:	e9d1 7604 	ldrd	r7, r6, [r1, #16]
 384:	7a89      	ldrb	r1, [r1, #10]
 386:	5955      	ldr	r5, [r2, r5]
 388:	4a1f      	ldr	r2, [pc, #124]	; (408 <_ZN4r2d27can_bus6detail19_handle_mailbox_isrINS0_4can0EEEvh+0x168>)
 38a:	b379      	cbz	r1, 3ec <_ZN4r2d27can_bus6detail19_handle_mailbox_isrINS0_4can0EEEvh+0x14c>
 38c:	f045 5500 	orr.w	r5, r5, #536870912	; 0x20000000
 390:	f1b8 0f08 	cmp.w	r8, #8
 394:	bf28      	it	cs
 396:	f04f 0808 	movcs.w	r8, #8
 39a:	18d1      	adds	r1, r2, r3
 39c:	f8c1 5208 	str.w	r5, [r1, #520]	; 0x208
 3a0:	441a      	add	r2, r3
 3a2:	f8d2 121c 	ldr.w	r1, [r2, #540]	; 0x21c
 3a6:	f421 2170 	bic.w	r1, r1, #983040	; 0xf0000
 3aa:	ea41 4108 	orr.w	r1, r1, r8, lsl #16
 3ae:	f8c2 121c 	str.w	r1, [r2, #540]	; 0x21c
 3b2:	f8d2 1210 	ldr.w	r1, [r2, #528]	; 0x210
 3b6:	f1be 0f00 	cmp.w	lr, #0
 3ba:	d01b      	beq.n	3f4 <_ZN4r2d27can_bus6detail19_handle_mailbox_isrINS0_4can0EEEvh+0x154>
 3bc:	f441 1180 	orr.w	r1, r1, #1048576	; 0x100000
 3c0:	f8c2 1210 	str.w	r1, [r2, #528]	; 0x210
 3c4:	f8d4 2200 	ldr.w	r2, [r4, #512]	; 0x200
 3c8:	f422 2270 	bic.w	r2, r2, #983040	; 0xf0000
 3cc:	ea42 420c 	orr.w	r2, r2, ip, lsl #16
 3d0:	f8c4 2200 	str.w	r2, [r4, #512]	; 0x200
 3d4:	4a0c      	ldr	r2, [pc, #48]	; (408 <_ZN4r2d27can_bus6detail19_handle_mailbox_isrINS0_4can0EEEvh+0x168>)
 3d6:	4413      	add	r3, r2
 3d8:	f8c3 7214 	str.w	r7, [r3, #532]	; 0x214
 3dc:	f8c3 6218 	str.w	r6, [r3, #536]	; 0x218
 3e0:	2301      	movs	r3, #1
 3e2:	fa03 f000 	lsl.w	r0, r3, r0
 3e6:	b2c0      	uxtb	r0, r0
 3e8:	6250      	str	r0, [r2, #36]	; 0x24
 3ea:	e7af      	b.n	34c <_ZN4r2d27can_bus6detail19_handle_mailbox_isrINS0_4can0EEEvh+0xac>
 3ec:	4909      	ldr	r1, [pc, #36]	; (414 <_ZN4r2d27can_bus6detail19_handle_mailbox_isrINS0_4can0EEEvh+0x174>)
 3ee:	ea01 4585 	and.w	r5, r1, r5, lsl #18
 3f2:	e7cd      	b.n	390 <_ZN4r2d27can_bus6detail19_handle_mailbox_isrINS0_4can0EEEvh+0xf0>
 3f4:	f421 1180 	bic.w	r1, r1, #1048576	; 0x100000
 3f8:	e7e2      	b.n	3c0 <_ZN4r2d27can_bus6detail19_handle_mailbox_isrINS0_4can0EEEvh+0x120>
 3fa:	2301      	movs	r3, #1
 3fc:	fa03 f000 	lsl.w	r0, r3, r0
 400:	4b01      	ldr	r3, [pc, #4]	; (408 <_ZN4r2d27can_bus6detail19_handle_mailbox_isrINS0_4can0EEEvh+0x168>)
 402:	6098      	str	r0, [r3, #8]
 404:	e7a2      	b.n	34c <_ZN4r2d27can_bus6detail19_handle_mailbox_isrINS0_4can0EEEvh+0xac>
 406:	bf00      	nop
 408:	400b4000 	.word	0x400b4000
 40c:	20086460 	.word	0x20086460
 410:	20085850 	.word	0x20085850
 414:	1ffc0000 	.word	0x1ffc0000

00000418 <__CAN0_Handler>:
 418:	b5f8      	push	{r3, r4, r5, r6, r7, lr}
 41a:	2601      	movs	r6, #1
 41c:	4b0a      	ldr	r3, [pc, #40]	; (448 <__CAN0_Handler+0x30>)
 41e:	691f      	ldr	r7, [r3, #16]
 420:	68dd      	ldr	r5, [r3, #12]
 422:	ea07 0405 	and.w	r4, r7, r5
 426:	fa94 f4a4 	rbit	r4, r4
 42a:	fab4 f484 	clz	r4, r4
 42e:	b2e4      	uxtb	r4, r4
 430:	2c1f      	cmp	r4, #31
 432:	d807      	bhi.n	444 <__CAN0_Handler+0x2c>
 434:	4620      	mov	r0, r4
 436:	fa06 f404 	lsl.w	r4, r6, r4
 43a:	f7ff ff31 	bl	2a0 <_ZN4r2d27can_bus6detail19_handle_mailbox_isrINS0_4can0EEEvh>
 43e:	ea25 0504 	bic.w	r5, r5, r4
 442:	e7ee      	b.n	422 <__CAN0_Handler+0xa>
 444:	bdf8      	pop	{r3, r4, r5, r6, r7, pc}
 446:	bf00      	nop
 448:	400b4000 	.word	0x400b4000

0000044c <_ZN4r2d27can_bus6detail19_handle_mailbox_isrINS0_4can1EEEvh>:
 44c:	4a59      	ldr	r2, [pc, #356]	; (5b4 <_ZN4r2d27can_bus6detail19_handle_mailbox_isrINS0_4can1EEEvh+0x168>)
 44e:	e92d 41f0 	stmdb	sp!, {r4, r5, r6, r7, r8, lr}
 452:	0143      	lsls	r3, r0, #5
 454:	18d1      	adds	r1, r2, r3
 456:	f8d1 1210 	ldr.w	r1, [r1, #528]	; 0x210
 45a:	b086      	sub	sp, #24
 45c:	0209      	lsls	r1, r1, #8
 45e:	d54b      	bpl.n	4f8 <_ZN4r2d27can_bus6detail19_handle_mailbox_isrINS0_4can1EEEvh+0xac>
 460:	f103 4480 	add.w	r4, r3, #1073741824	; 0x40000000
 464:	f504 2438 	add.w	r4, r4, #753664	; 0xb8000
 468:	f8d4 1200 	ldr.w	r1, [r4, #512]	; 0x200
 46c:	f3c1 6102 	ubfx	r1, r1, #24, #3
 470:	3901      	subs	r1, #1
 472:	2903      	cmp	r1, #3
 474:	d840      	bhi.n	4f8 <_ZN4r2d27can_bus6detail19_handle_mailbox_isrINS0_4can1EEEvh+0xac>
 476:	e8df f001 	tbb	[pc, r1]
 47a:	0202      	.short	0x0202
 47c:	0242      	.short	0x0242
 47e:	441a      	add	r2, r3
 480:	f8d2 1210 	ldr.w	r1, [r2, #528]	; 0x210
 484:	f8d2 2208 	ldr.w	r2, [r2, #520]	; 0x208
 488:	f103 4380 	add.w	r3, r3, #1073741824	; 0x40000000
 48c:	f012 5400 	ands.w	r4, r2, #536870912	; 0x20000000
 490:	bf1d      	ittte	ne
 492:	f022 4260 	bicne.w	r2, r2, #3758096384	; 0xe0000000
 496:	9200      	strne	r2, [sp, #0]
 498:	2201      	movne	r2, #1
 49a:	f3c2 428a 	ubfxeq	r2, r2, #18, #11
 49e:	f503 2338 	add.w	r3, r3, #753664	; 0xb8000
 4a2:	bf12      	itee	ne
 4a4:	f88d 200a 	strbne.w	r2, [sp, #10]
 4a8:	9200      	streq	r2, [sp, #0]
 4aa:	f88d 400a 	strbeq.w	r4, [sp, #10]
 4ae:	f8d3 220c 	ldr.w	r2, [r3, #524]	; 0x20c
 4b2:	f8ad 100c 	strh.w	r1, [sp, #12]
 4b6:	9201      	str	r2, [sp, #4]
 4b8:	f3c1 4203 	ubfx	r2, r1, #16, #4
 4bc:	f88d 200e 	strb.w	r2, [sp, #14]
 4c0:	f8d3 2210 	ldr.w	r2, [r3, #528]	; 0x210
 4c4:	4669      	mov	r1, sp
 4c6:	f3c2 5200 	ubfx	r2, r2, #20, #1
 4ca:	f88d 2008 	strb.w	r2, [sp, #8]
 4ce:	f8d3 2214 	ldr.w	r2, [r3, #532]	; 0x214
 4d2:	9204      	str	r2, [sp, #16]
 4d4:	f8d3 2218 	ldr.w	r2, [r3, #536]	; 0x218
 4d8:	9205      	str	r2, [sp, #20]
 4da:	f8d3 2210 	ldr.w	r2, [r3, #528]	; 0x210
 4de:	f8d3 221c 	ldr.w	r2, [r3, #540]	; 0x21c
 4e2:	f442 0200 	orr.w	r2, r2, #8388608	; 0x800000
 4e6:	f8c3 221c 	str.w	r2, [r3, #540]	; 0x21c
 4ea:	f44f 7243 	mov.w	r2, #780	; 0x30c
 4ee:	4b32      	ldr	r3, [pc, #200]	; (5b8 <_ZN4r2d27can_bus6detail19_handle_mailbox_isrINS0_4can1EEEvh+0x16c>)
 4f0:	fb02 3000 	mla	r0, r2, r0, r3
 4f4:	f7ff fea9 	bl	24a <_ZN4r2d27can_bus12ringbuffer_cINS0_6detail12_can_frame_sELj32EE4pushERKS3_>
 4f8:	b006      	add	sp, #24
 4fa:	e8bd 81f0 	ldmia.w	sp!, {r4, r5, r6, r7, r8, pc}
 4fe:	f44f 7241 	mov.w	r2, #772	; 0x304
 502:	1f01      	subs	r1, r0, #4
 504:	4351      	muls	r1, r2
 506:	4d2d      	ldr	r5, [pc, #180]	; (5bc <_ZN4r2d27can_bus6detail19_handle_mailbox_isrINS0_4can1EEEvh+0x170>)
 508:	194e      	adds	r6, r1, r5
 50a:	f8d6 2300 	ldr.w	r2, [r6, #768]	; 0x300
 50e:	2a00      	cmp	r2, #0
 510:	d049      	beq.n	5a6 <_ZN4r2d27can_bus6detail19_handle_mailbox_isrINS0_4can1EEEvh+0x15a>
 512:	3a01      	subs	r2, #1
 514:	f8c6 2300 	str.w	r2, [r6, #768]	; 0x300
 518:	2618      	movs	r6, #24
 51a:	fb06 1202 	mla	r2, r6, r2, r1
 51e:	1951      	adds	r1, r2, r5
 520:	f891 e008 	ldrb.w	lr, [r1, #8]
 524:	f891 c009 	ldrb.w	ip, [r1, #9]
 528:	f891 800e 	ldrb.w	r8, [r1, #14]
 52c:	e9d1 7604 	ldrd	r7, r6, [r1, #16]
 530:	7a89      	ldrb	r1, [r1, #10]
 532:	5955      	ldr	r5, [r2, r5]
 534:	4a1f      	ldr	r2, [pc, #124]	; (5b4 <_ZN4r2d27can_bus6detail19_handle_mailbox_isrINS0_4can1EEEvh+0x168>)
 536:	b379      	cbz	r1, 598 <_ZN4r2d27can_bus6detail19_handle_mailbox_isrINS0_4can1EEEvh+0x14c>
 538:	f045 5500 	orr.w	r5, r5, #536870912	; 0x20000000
 53c:	f1b8 0f08 	cmp.w	r8, #8
 540:	bf28      	it	cs
 542:	f04f 0808 	movcs.w	r8, #8
 546:	18d1      	adds	r1, r2, r3
 548:	f8c1 5208 	str.w	r5, [r1, #520]	; 0x208
 54c:	441a      	add	r2, r3
 54e:	f8d2 121c 	ldr.w	r1, [r2, #540]	; 0x21c
 552:	f421 2170 	bic.w	r1, r1, #983040	; 0xf0000
 556:	ea41 4108 	orr.w	r1, r1, r8, lsl #16
 55a:	f8c2 121c 	str.w	r1, [r2, #540]	; 0x21c
 55e:	f8d2 1210 	ldr.w	r1, [r2, #528]	; 0x210
 562:	f1be 0f00 	cmp.w	lr, #0
 566:	d01b      	beq.n	5a0 <_ZN4r2d27can_bus6detail19_handle_mailbox_isrINS0_4can1EEEvh+0x154>
 568:	f441 1180 	orr.w	r1, r1, #1048576	; 0x100000
 56c:	f8c2 1210 	str.w	r1, [r2, #528]	; 0x210
 570:	f8d4 2200 	ldr.w	r2, [r4, #512]	; 0x200
 574:	f422 2270 	bic.w	r2, r2, #983040	; 0xf0000
 578:	ea42 420c 	orr.w	r2, r2, ip, lsl #16
 57c:	f8c4 2200 	str.w	r2, [r4, #512]	; 0x200
 580:	4a0c      	ldr	r2, [pc, #48]	; (5b4 <_ZN4r2d27can_bus6detail19_handle_mailbox_isrINS0_4can1EEEvh+0x168>)
 582:	4413      	add	r3, r2
 584:	f8c3 7214 	str.w	r7, [r3, #532]	; 0x214
 588:	f8c3 6218 	str.w	r6, [r3, #536]	; 0x218
 58c:	2301      	movs	r3, #1
 58e:	fa03 f000 	lsl.w	r0, r3, r0
 592:	b2c0      	uxtb	r0, r0
 594:	6250      	str	r0, [r2, #36]	; 0x24
 596:	e7af      	b.n	4f8 <_ZN4r2d27can_bus6detail19_handle_mailbox_isrINS0_4can1EEEvh+0xac>
 598:	4909      	ldr	r1, [pc, #36]	; (5c0 <_ZN4r2d27can_bus6detail19_handle_mailbox_isrINS0_4can1EEEvh+0x174>)
 59a:	ea01 4585 	and.w	r5, r1, r5, lsl #18
 59e:	e7cd      	b.n	53c <_ZN4r2d27can_bus6detail19_handle_mailbox_isrINS0_4can1EEEvh+0xf0>
 5a0:	f421 1180 	bic.w	r1, r1, #1048576	; 0x100000
 5a4:	e7e2      	b.n	56c <_ZN4r2d27can_bus6detail19_handle_mailbox_isrINS0_4can1EEEvh+0x120>
 5a6:	2301      	movs	r3, #1
 5a8:	fa03 f000 	lsl.w	r0, r3, r0
 5ac:	4b01      	ldr	r3, [pc, #4]	; (5b4 <_ZN4r2d27can_bus6detail19_handle_mailbox_isrINS0_4can1EEEvh+0x168>)
 5ae:	6098      	str	r0, [r3, #8]
 5b0:	e7a2      	b.n	4f8 <_ZN4r2d27can_bus6detail19_handle_mailbox_isrINS0_4can1EEEvh+0xac>
 5b2:	bf00      	nop
 5b4:	400b8000 	.word	0x400b8000
 5b8:	20084c20 	.word	0x20084c20
 5bc:	20084010 	.word	0x20084010
 5c0:	1ffc0000 	.word	0x1ffc0000

000005c4 <__CAN1_Handler>:
 5c4:	b5f8      	push	{r3, r4, r5, r6, r7, lr}
 5c6:	2601      	movs	r6, #1
 5c8:	4b0a      	ldr	r3, [pc, #40]	; (5f4 <__CAN1_Handler+0x30>)
 5ca:	691f      	ldr	r7, [r3, #16]
 5cc:	68dd      	ldr	r5, [r3, #12]
 5ce:	ea07 0405 	and.w	r4, r7, r5
 5d2:	fa94 f4a4 	rbit	r4, r4
 5d6:	fab4 f484 	clz	r4, r4
 5da:	b2e4      	uxtb	r4, r4
 5dc:	2c1f      	cmp	r4, #31
 5de:	d807      	bhi.n	5f0 <__CAN1_Handler+0x2c>
 5e0:	4620      	mov	r0, r4
 5e2:	fa06 f404 	lsl.w	r4, r6, r4
 5e6:	f7ff ff31 	bl	44c <_ZN4r2d27can_bus6detail19_handle_mailbox_isrINS0_4can1EEEvh>
 5ea:	ea25 0504 	bic.w	r5, r5, r4
 5ee:	e7ee      	b.n	5ce <__CAN1_Handler+0xa>
 5f0:	bdf8      	pop	{r3, r4, r5, r6, r7, pc}
 5f2:	bf00      	nop
 5f4:	400b8000 	.word	0x400b8000

000005f8 <_ZN4r2d27can_bus6detail13_set_baudrateINS0_4can0ELNS0_8baudrateE1000000EEEbv>:
 5f8:	2208      	movs	r2, #8
 5fa:	4822      	ldr	r0, [pc, #136]	; (684 <_ZN4r2d27can_bus6detail13_set_baudrateINS0_4can0ELNS0_8baudrateE1000000EEEbv+0x8c>)
 5fc:	b5f0      	push	{r4, r5, r6, r7, lr}
 5fe:	4603      	mov	r3, r0
 600:	f04f 35ff 	mov.w	r5, #4294967295	; 0xffffffff
 604:	4614      	mov	r4, r2
 606:	4f20      	ldr	r7, [pc, #128]	; (688 <_ZN4r2d27can_bus6detail13_set_baudrateINS0_4can0ELNS0_8baudrateE1000000EEEbv+0x90>)
 608:	fb07 f602 	mul.w	r6, r7, r2
 60c:	fbb0 f1f6 	udiv	r1, r0, r6
 610:	fb06 0111 	mls	r1, r6, r1, r0
 614:	42a9      	cmp	r1, r5
 616:	d202      	bcs.n	61e <_ZN4r2d27can_bus6detail13_set_baudrateINS0_4can0ELNS0_8baudrateE1000000EEEbv+0x26>
 618:	b129      	cbz	r1, 626 <_ZN4r2d27can_bus6detail13_set_baudrateINS0_4can0ELNS0_8baudrateE1000000EEEbv+0x2e>
 61a:	460d      	mov	r5, r1
 61c:	4614      	mov	r4, r2
 61e:	3201      	adds	r2, #1
 620:	2a1a      	cmp	r2, #26
 622:	d1f1      	bne.n	608 <_ZN4r2d27can_bus6detail13_set_baudrateINS0_4can0ELNS0_8baudrateE1000000EEEbv+0x10>
 624:	4622      	mov	r2, r4
 626:	2406      	movs	r4, #6
 628:	4818      	ldr	r0, [pc, #96]	; (68c <_ZN4r2d27can_bus6detail13_set_baudrateINS0_4can0ELNS0_8baudrateE1000000EEEbv+0x94>)
 62a:	f1a2 0108 	sub.w	r1, r2, #8
 62e:	fb04 0101 	mla	r1, r4, r1, r0
 632:	784c      	ldrb	r4, [r1, #1]
 634:	788d      	ldrb	r5, [r1, #2]
 636:	78ce      	ldrb	r6, [r1, #3]
 638:	7908      	ldrb	r0, [r1, #4]
 63a:	4915      	ldr	r1, [pc, #84]	; (690 <_ZN4r2d27can_bus6detail13_set_baudrateINS0_4can0ELNS0_8baudrateE1000000EEEbv+0x98>)
 63c:	680f      	ldr	r7, [r1, #0]
 63e:	f027 0701 	bic.w	r7, r7, #1
 642:	600f      	str	r7, [r1, #0]
 644:	690f      	ldr	r7, [r1, #16]
 646:	4f10      	ldr	r7, [pc, #64]	; (688 <_ZN4r2d27can_bus6detail13_set_baudrateINS0_4can0ELNS0_8baudrateE1000000EEEbv+0x90>)
 648:	437a      	muls	r2, r7
 64a:	fbb3 f3f2 	udiv	r3, r3, r2
 64e:	3b01      	subs	r3, #1
 650:	1e72      	subs	r2, r6, #1
 652:	041b      	lsls	r3, r3, #16
 654:	f002 0207 	and.w	r2, r2, #7
 658:	f403 03fe 	and.w	r3, r3, #8323072	; 0x7f0000
 65c:	4313      	orrs	r3, r2
 65e:	1e6a      	subs	r2, r5, #1
 660:	0112      	lsls	r2, r2, #4
 662:	f002 0270 	and.w	r2, r2, #112	; 0x70
 666:	4313      	orrs	r3, r2
 668:	1e62      	subs	r2, r4, #1
 66a:	0212      	lsls	r2, r2, #8
 66c:	f402 62e0 	and.w	r2, r2, #1792	; 0x700
 670:	4313      	orrs	r3, r2
 672:	1e42      	subs	r2, r0, #1
 674:	0312      	lsls	r2, r2, #12
 676:	f402 5240 	and.w	r2, r2, #12288	; 0x3000
 67a:	4313      	orrs	r3, r2
 67c:	614b      	str	r3, [r1, #20]
 67e:	2001      	movs	r0, #1
 680:	bdf0      	pop	{r4, r5, r6, r7, pc}
 682:	bf00      	nop
 684:	0501bd00 	.word	0x0501bd00
 688:	000f4240 	.word	0x000f4240
 68c:	00000c00 	.word	0x00000c00
 690:	400b4000 	.word	0x400b4000

00000694 <_ZN4r2d27can_bus6detail21_set_mailbox_tx_countINS0_4can0EEEvh>:
 694:	2200      	movs	r2, #0
 696:	b5f0      	push	{r4, r5, r6, r7, lr}
 698:	4616      	mov	r6, r2
 69a:	4f22      	ldr	r7, [pc, #136]	; (724 <_ZN4r2d27can_bus6detail21_set_mailbox_tx_countINS0_4can0EEEvh+0x90>)
 69c:	4d22      	ldr	r5, [pc, #136]	; (728 <_ZN4r2d27can_bus6detail21_set_mailbox_tx_countINS0_4can0EEEvh+0x94>)
 69e:	4290      	cmp	r0, r2
 6a0:	4604      	mov	r4, r0
 6a2:	dc23      	bgt.n	6ec <_ZN4r2d27can_bus6detail21_set_mailbox_tx_countINS0_4can0EEEvh+0x58>
 6a4:	4d20      	ldr	r5, [pc, #128]	; (728 <_ZN4r2d27can_bus6detail21_set_mailbox_tx_countINS0_4can0EEEvh+0x94>)
 6a6:	481f      	ldr	r0, [pc, #124]	; (724 <_ZN4r2d27can_bus6detail21_set_mailbox_tx_countINS0_4can0EEEvh+0x90>)
 6a8:	2c07      	cmp	r4, #7
 6aa:	dc39      	bgt.n	720 <_ZN4r2d27can_bus6detail21_set_mailbox_tx_countINS0_4can0EEEvh+0x8c>
 6ac:	0162      	lsls	r2, r4, #5
 6ae:	f102 2340 	add.w	r3, r2, #1073758208	; 0x40004000
 6b2:	f503 2330 	add.w	r3, r3, #720896	; 0xb0000
 6b6:	f8d3 1200 	ldr.w	r1, [r3, #512]	; 0x200
 6ba:	3401      	adds	r4, #1
 6bc:	f021 61e0 	bic.w	r1, r1, #117440512	; 0x7000000
 6c0:	f041 7140 	orr.w	r1, r1, #50331648	; 0x3000000
 6c4:	f8c3 1200 	str.w	r1, [r3, #512]	; 0x200
 6c8:	f8d3 1200 	ldr.w	r1, [r3, #512]	; 0x200
 6cc:	f421 2170 	bic.w	r1, r1, #983040	; 0xf0000
 6d0:	f441 2120 	orr.w	r1, r1, #655360	; 0xa0000
 6d4:	f8c3 1200 	str.w	r1, [r3, #512]	; 0x200
 6d8:	f8c3 5204 	str.w	r5, [r3, #516]	; 0x204
 6dc:	1883      	adds	r3, r0, r2
 6de:	f8d3 2208 	ldr.w	r2, [r3, #520]	; 0x208
 6e2:	f022 5200 	bic.w	r2, r2, #536870912	; 0x20000000
 6e6:	f8c3 2208 	str.w	r2, [r3, #520]	; 0x208
 6ea:	e7dd      	b.n	6a8 <_ZN4r2d27can_bus6detail21_set_mailbox_tx_countINS0_4can0EEEvh+0x14>
 6ec:	0153      	lsls	r3, r2, #5
 6ee:	f103 2140 	add.w	r1, r3, #1073758208	; 0x40004000
 6f2:	f501 2130 	add.w	r1, r1, #720896	; 0xb0000
 6f6:	f8d1 4200 	ldr.w	r4, [r1, #512]	; 0x200
 6fa:	443b      	add	r3, r7
 6fc:	f024 64e0 	bic.w	r4, r4, #117440512	; 0x7000000
 700:	f044 7480 	orr.w	r4, r4, #16777216	; 0x1000000
 704:	f8c1 4200 	str.w	r4, [r1, #512]	; 0x200
 708:	f8c3 6208 	str.w	r6, [r3, #520]	; 0x208
 70c:	f8c1 5204 	str.w	r5, [r1, #516]	; 0x204
 710:	f8d3 1208 	ldr.w	r1, [r3, #520]	; 0x208
 714:	3201      	adds	r2, #1
 716:	f021 5100 	bic.w	r1, r1, #536870912	; 0x20000000
 71a:	f8c3 1208 	str.w	r1, [r3, #520]	; 0x208
 71e:	e7be      	b.n	69e <_ZN4r2d27can_bus6detail21_set_mailbox_tx_countINS0_4can0EEEvh+0xa>
 720:	bdf0      	pop	{r4, r5, r6, r7, pc}
 722:	bf00      	nop
 724:	400b4000 	.word	0x400b4000
 728:	1ffc07ff 	.word	0x1ffc07ff

0000072c <_ZN4r2d27can_bus6detail13_init_mailboxINS0_4can0EEEvh>:
 72c:	2300      	movs	r3, #0
 72e:	0140      	lsls	r0, r0, #5
 730:	f100 2240 	add.w	r2, r0, #1073758208	; 0x40004000
 734:	f502 2230 	add.w	r2, r2, #720896	; 0xb0000
 738:	f8c2 3200 	str.w	r3, [r2, #512]	; 0x200
 73c:	f8c2 3204 	str.w	r3, [r2, #516]	; 0x204
 740:	f8c2 3208 	str.w	r3, [r2, #520]	; 0x208
 744:	f8c2 3214 	str.w	r3, [r2, #532]	; 0x214
 748:	f8c2 3218 	str.w	r3, [r2, #536]	; 0x218
 74c:	f8c2 321c 	str.w	r3, [r2, #540]	; 0x21c
 750:	4770      	bx	lr
	...

00000754 <_ZN4r2d27can_bus10controllerINS0_4can0EE4initILNS0_8baudrateE1000000EEEbv>:
 754:	f44f 6200 	mov.w	r2, #2048	; 0x800
 758:	21c0      	movs	r1, #192	; 0xc0
 75a:	4b1f      	ldr	r3, [pc, #124]	; (7d8 <_ZN4r2d27can_bus10controllerINS0_4can0EE4initILNS0_8baudrateE1000000EEEbv+0x84>)
 75c:	b510      	push	{r4, lr}
 75e:	f8c3 2100 	str.w	r2, [r3, #256]	; 0x100
 762:	4b1e      	ldr	r3, [pc, #120]	; (7dc <_ZN4r2d27can_bus10controllerINS0_4can0EE4initILNS0_8baudrateE1000000EEEbv+0x88>)
 764:	f883 132b 	strb.w	r1, [r3, #811]	; 0x32b
 768:	2101      	movs	r1, #1
 76a:	605a      	str	r2, [r3, #4]
 76c:	4b1c      	ldr	r3, [pc, #112]	; (7e0 <_ZN4r2d27can_bus10controllerINS0_4can0EE4initILNS0_8baudrateE1000000EEEbv+0x8c>)
 76e:	6459      	str	r1, [r3, #68]	; 0x44
 770:	6f1a      	ldr	r2, [r3, #112]	; 0x70
 772:	6f18      	ldr	r0, [r3, #112]	; 0x70
 774:	4002      	ands	r2, r0
 776:	f022 0201 	bic.w	r2, r2, #1
 77a:	671a      	str	r2, [r3, #112]	; 0x70
 77c:	6619      	str	r1, [r3, #96]	; 0x60
 77e:	6059      	str	r1, [r3, #4]
 780:	2102      	movs	r1, #2
 782:	6459      	str	r1, [r3, #68]	; 0x44
 784:	6f1a      	ldr	r2, [r3, #112]	; 0x70
 786:	6f18      	ldr	r0, [r3, #112]	; 0x70
 788:	4002      	ands	r2, r0
 78a:	f022 0202 	bic.w	r2, r2, #2
 78e:	671a      	str	r2, [r3, #112]	; 0x70
 790:	6619      	str	r1, [r3, #96]	; 0x60
 792:	6059      	str	r1, [r3, #4]
 794:	f7ff ff30 	bl	5f8 <_ZN4r2d27can_bus6detail13_set_baudrateINS0_4can0ELNS0_8baudrateE1000000EEEbv>
 798:	b1e0      	cbz	r0, 7d4 <_ZN4r2d27can_bus10controllerINS0_4can0EE4initILNS0_8baudrateE1000000EEEbv+0x80>
 79a:	2400      	movs	r4, #0
 79c:	b2e0      	uxtb	r0, r4
 79e:	3401      	adds	r4, #1
 7a0:	f7ff ffc4 	bl	72c <_ZN4r2d27can_bus6detail13_init_mailboxINS0_4can0EEEvh>
 7a4:	2c08      	cmp	r4, #8
 7a6:	d1f9      	bne.n	79c <_ZN4r2d27can_bus10controllerINS0_4can0EE4initILNS0_8baudrateE1000000EEEbv+0x48>
 7a8:	f04f 33ff 	mov.w	r3, #4294967295	; 0xffffffff
 7ac:	4c0d      	ldr	r4, [pc, #52]	; (7e4 <_ZN4r2d27can_bus10controllerINS0_4can0EE4initILNS0_8baudrateE1000000EEEbv+0x90>)
 7ae:	2004      	movs	r0, #4
 7b0:	60a3      	str	r3, [r4, #8]
 7b2:	f7ff ff6f 	bl	694 <_ZN4r2d27can_bus6detail21_set_mailbox_tx_countINS0_4can0EEEvh>
 7b6:	2000      	movs	r0, #0
 7b8:	6823      	ldr	r3, [r4, #0]
 7ba:	f043 0301 	orr.w	r3, r3, #1
 7be:	6023      	str	r3, [r4, #0]
 7c0:	4b09      	ldr	r3, [pc, #36]	; (7e8 <_ZN4r2d27can_bus10controllerINS0_4can0EE4initILNS0_8baudrateE1000000EEEbv+0x94>)
 7c2:	6922      	ldr	r2, [r4, #16]
 7c4:	3001      	adds	r0, #1
 7c6:	0292      	lsls	r2, r2, #10
 7c8:	d401      	bmi.n	7ce <_ZN4r2d27can_bus10controllerINS0_4can0EE4initILNS0_8baudrateE1000000EEEbv+0x7a>
 7ca:	4298      	cmp	r0, r3
 7cc:	d1f9      	bne.n	7c2 <_ZN4r2d27can_bus10controllerINS0_4can0EE4initILNS0_8baudrateE1000000EEEbv+0x6e>
 7ce:	1ac0      	subs	r0, r0, r3
 7d0:	bf18      	it	ne
 7d2:	2001      	movne	r0, #1
 7d4:	bd10      	pop	{r4, pc}
 7d6:	bf00      	nop
 7d8:	400e0600 	.word	0x400e0600
 7dc:	e000e100 	.word	0xe000e100
 7e0:	400e0e00 	.word	0x400e0e00
 7e4:	400b4000 	.word	0x400b4000
 7e8:	000186a0 	.word	0x000186a0

000007ec <_ZN4r2d27can_bus9channel_cINS0_4can0ELNS0_8priorityE1EE4initEv>:
 7ec:	b508      	push	{r3, lr}
 7ee:	2002      	movs	r0, #2
 7f0:	f7ff ff9c 	bl	72c <_ZN4r2d27can_bus6detail13_init_mailboxINS0_4can0EEEvh>
 7f4:	2003      	movs	r0, #3
 7f6:	f7ff ff99 	bl	72c <_ZN4r2d27can_bus6detail13_init_mailboxINS0_4can0EEEvh>
 7fa:	4b17      	ldr	r3, [pc, #92]	; (858 <_ZN4r2d27can_bus9channel_cINS0_4can0ELNS0_8priorityE1EE4initEv+0x6c>)
 7fc:	4917      	ldr	r1, [pc, #92]	; (85c <_ZN4r2d27can_bus9channel_cINS0_4can0ELNS0_8priorityE1EE4initEv+0x70>)
 7fe:	f8d3 2240 	ldr.w	r2, [r3, #576]	; 0x240
 802:	f022 62e0 	bic.w	r2, r2, #117440512	; 0x7000000
 806:	f042 7240 	orr.w	r2, r2, #50331648	; 0x3000000
 80a:	f8c3 2240 	str.w	r2, [r3, #576]	; 0x240
 80e:	f8d3 2240 	ldr.w	r2, [r3, #576]	; 0x240
 812:	f422 2270 	bic.w	r2, r2, #983040	; 0xf0000
 816:	f442 2220 	orr.w	r2, r2, #655360	; 0xa0000
 81a:	f8c3 2240 	str.w	r2, [r3, #576]	; 0x240
 81e:	f8c3 1244 	str.w	r1, [r3, #580]	; 0x244
 822:	f8d3 2248 	ldr.w	r2, [r3, #584]	; 0x248
 826:	f022 5200 	bic.w	r2, r2, #536870912	; 0x20000000
 82a:	f8c3 2248 	str.w	r2, [r3, #584]	; 0x248
 82e:	f8d3 2260 	ldr.w	r2, [r3, #608]	; 0x260
 832:	f022 62e0 	bic.w	r2, r2, #117440512	; 0x7000000
 836:	f042 7280 	orr.w	r2, r2, #16777216	; 0x1000000
 83a:	f8c3 2260 	str.w	r2, [r3, #608]	; 0x260
 83e:	2200      	movs	r2, #0
 840:	f8c3 2268 	str.w	r2, [r3, #616]	; 0x268
 844:	f8c3 1264 	str.w	r1, [r3, #612]	; 0x264
 848:	f8d3 2268 	ldr.w	r2, [r3, #616]	; 0x268
 84c:	f022 5200 	bic.w	r2, r2, #536870912	; 0x20000000
 850:	f8c3 2268 	str.w	r2, [r3, #616]	; 0x268
 854:	bd08      	pop	{r3, pc}
 856:	bf00      	nop
 858:	400b4000 	.word	0x400b4000
 85c:	1ffc07ff 	.word	0x1ffc07ff

00000860 <main>:
 860:	f44f 4200 	mov.w	r2, #32768	; 0x8000
 864:	b5f8      	push	{r3, r4, r5, r6, r7, lr}
 866:	4b11      	ldr	r3, [pc, #68]	; (8ac <main+0x4c>)
 868:	f44f 707a 	mov.w	r0, #1000	; 0x3e8
 86c:	605a      	str	r2, [r3, #4]
 86e:	f7ff fce8 	bl	242 <_ZN5hwlib7wait_msEi>
 872:	2718      	movs	r7, #24
 874:	f7ff ff6e 	bl	754 <_ZN4r2d27can_bus10controllerINS0_4can0EE4initILNS0_8baudrateE1000000EEEbv>
 878:	2604      	movs	r6, #4
 87a:	f7ff ffb7 	bl	7ec <_ZN4r2d27can_bus9channel_cINS0_4can0ELNS0_8priorityE1EE4initEv>
 87e:	4c0c      	ldr	r4, [pc, #48]	; (8b0 <main+0x50>)
 880:	4d0c      	ldr	r5, [pc, #48]	; (8b4 <main+0x54>)
 882:	2101      	movs	r1, #1
 884:	f8d4 3300 	ldr.w	r3, [r4, #768]	; 0x300
 888:	f44f 707a 	mov.w	r0, #1000	; 0x3e8
 88c:	1c5a      	adds	r2, r3, #1
 88e:	437b      	muls	r3, r7
 890:	f8c4 2300 	str.w	r2, [r4, #768]	; 0x300
 894:	5119      	str	r1, [r3, r4]
 896:	191a      	adds	r2, r3, r4
 898:	f240 2101 	movw	r1, #513	; 0x201
 89c:	2303      	movs	r3, #3
 89e:	8211      	strh	r1, [r2, #16]
 8a0:	7393      	strb	r3, [r2, #14]
 8a2:	7493      	strb	r3, [r2, #18]
 8a4:	606e      	str	r6, [r5, #4]
 8a6:	f7ff fccc 	bl	242 <_ZN5hwlib7wait_msEi>
 8aa:	e7ea      	b.n	882 <main+0x22>
 8ac:	400e1a50 	.word	0x400e1a50
 8b0:	20087090 	.word	0x20087090
 8b4:	400b4000 	.word	0x400b4000

000008b8 <__default_handler>:
 8b8:	4770      	bx	lr
	...

000008bc <__startup>:
 8bc:	2100      	movs	r1, #0
 8be:	b508      	push	{r3, lr}
 8c0:	4a09      	ldr	r2, [pc, #36]	; (8e8 <__startup+0x2c>)
 8c2:	4b0a      	ldr	r3, [pc, #40]	; (8ec <__startup+0x30>)
 8c4:	4293      	cmp	r3, r2
 8c6:	d107      	bne.n	8d8 <__startup+0x1c>
 8c8:	4b09      	ldr	r3, [pc, #36]	; (8f0 <__startup+0x34>)
 8ca:	4a0a      	ldr	r2, [pc, #40]	; (8f4 <__startup+0x38>)
 8cc:	490a      	ldr	r1, [pc, #40]	; (8f8 <__startup+0x3c>)
 8ce:	428b      	cmp	r3, r1
 8d0:	d105      	bne.n	8de <__startup+0x22>
 8d2:	f7ff ffc5 	bl	860 <main>
 8d6:	e7fe      	b.n	8d6 <__startup+0x1a>
 8d8:	f843 1b04 	str.w	r1, [r3], #4
 8dc:	e7f2      	b.n	8c4 <__startup+0x8>
 8de:	f852 0b04 	ldr.w	r0, [r2], #4
 8e2:	f843 0b04 	str.w	r0, [r3], #4
 8e6:	e7f2      	b.n	8ce <__startup+0x12>
 8e8:	20087394 	.word	0x20087394
 8ec:	20084000 	.word	0x20084000
 8f0:	20087394 	.word	0x20087394
 8f4:	00000c74 	.word	0x00000c74
 8f8:	20087398 	.word	0x20087398

000008fc <__aeabi_uldivmod>:
 8fc:	b953      	cbnz	r3, 914 <__aeabi_uldivmod+0x18>
 8fe:	b94a      	cbnz	r2, 914 <__aeabi_uldivmod+0x18>
 900:	2900      	cmp	r1, #0
 902:	bf08      	it	eq
 904:	2800      	cmpeq	r0, #0
 906:	bf1c      	itt	ne
 908:	f04f 31ff 	movne.w	r1, #4294967295	; 0xffffffff
 90c:	f04f 30ff 	movne.w	r0, #4294967295	; 0xffffffff
 910:	f000 b974 	b.w	bfc <__aeabi_ldiv0>
 914:	f1ad 0c08 	sub.w	ip, sp, #8
 918:	e96d ce04 	strd	ip, lr, [sp, #-16]!
 91c:	f000 f806 	bl	92c <__udivmoddi4>
 920:	f8dd e004 	ldr.w	lr, [sp, #4]
 924:	e9dd 2302 	ldrd	r2, r3, [sp, #8]
 928:	b004      	add	sp, #16
 92a:	4770      	bx	lr

0000092c <__udivmoddi4>:
 92c:	e92d 47f0 	stmdb	sp!, {r4, r5, r6, r7, r8, r9, sl, lr}
 930:	468c      	mov	ip, r1
 932:	4604      	mov	r4, r0
 934:	9e08      	ldr	r6, [sp, #32]
 936:	2b00      	cmp	r3, #0
 938:	f040 8086 	bne.w	a48 <__udivmoddi4+0x11c>
 93c:	428a      	cmp	r2, r1
 93e:	4615      	mov	r5, r2
 940:	d948      	bls.n	9d4 <__udivmoddi4+0xa8>
 942:	fab2 f282 	clz	r2, r2
 946:	b14a      	cbz	r2, 95c <__udivmoddi4+0x30>
 948:	f1c2 0720 	rsb	r7, r2, #32
 94c:	fa01 f302 	lsl.w	r3, r1, r2
 950:	fa20 f707 	lsr.w	r7, r0, r7
 954:	4095      	lsls	r5, r2
 956:	ea47 0c03 	orr.w	ip, r7, r3
 95a:	4094      	lsls	r4, r2
 95c:	ea4f 4e15 	mov.w	lr, r5, lsr #16
 960:	fbbc f7fe 	udiv	r7, ip, lr
 964:	fa1f f885 	uxth.w	r8, r5
 968:	fb0e c317 	mls	r3, lr, r7, ip
 96c:	fb07 f908 	mul.w	r9, r7, r8
 970:	0c21      	lsrs	r1, r4, #16
 972:	ea41 4303 	orr.w	r3, r1, r3, lsl #16
 976:	4599      	cmp	r9, r3
 978:	d909      	bls.n	98e <__udivmoddi4+0x62>
 97a:	18eb      	adds	r3, r5, r3
 97c:	f107 31ff 	add.w	r1, r7, #4294967295	; 0xffffffff
 980:	f080 80e1 	bcs.w	b46 <__udivmoddi4+0x21a>
 984:	4599      	cmp	r9, r3
 986:	f240 80de 	bls.w	b46 <__udivmoddi4+0x21a>
 98a:	3f02      	subs	r7, #2
 98c:	442b      	add	r3, r5
 98e:	eba3 0309 	sub.w	r3, r3, r9
 992:	fbb3 f0fe 	udiv	r0, r3, lr
 996:	fb0e 3310 	mls	r3, lr, r0, r3
 99a:	fb00 f108 	mul.w	r1, r0, r8
 99e:	b2a4      	uxth	r4, r4
 9a0:	ea44 4403 	orr.w	r4, r4, r3, lsl #16
 9a4:	42a1      	cmp	r1, r4
 9a6:	d909      	bls.n	9bc <__udivmoddi4+0x90>
 9a8:	192c      	adds	r4, r5, r4
 9aa:	f100 33ff 	add.w	r3, r0, #4294967295	; 0xffffffff
 9ae:	f080 80c8 	bcs.w	b42 <__udivmoddi4+0x216>
 9b2:	42a1      	cmp	r1, r4
 9b4:	f240 80c5 	bls.w	b42 <__udivmoddi4+0x216>
 9b8:	3802      	subs	r0, #2
 9ba:	442c      	add	r4, r5
 9bc:	ea40 4007 	orr.w	r0, r0, r7, lsl #16
 9c0:	2700      	movs	r7, #0
 9c2:	1a64      	subs	r4, r4, r1
 9c4:	b11e      	cbz	r6, 9ce <__udivmoddi4+0xa2>
 9c6:	2300      	movs	r3, #0
 9c8:	40d4      	lsrs	r4, r2
 9ca:	e9c6 4300 	strd	r4, r3, [r6]
 9ce:	4639      	mov	r1, r7
 9d0:	e8bd 87f0 	ldmia.w	sp!, {r4, r5, r6, r7, r8, r9, sl, pc}
 9d4:	2a00      	cmp	r2, #0
 9d6:	d054      	beq.n	a82 <__udivmoddi4+0x156>
 9d8:	fab2 f282 	clz	r2, r2
 9dc:	2a00      	cmp	r2, #0
 9de:	f040 80b4 	bne.w	b4a <__udivmoddi4+0x21e>
 9e2:	2701      	movs	r7, #1
 9e4:	1b49      	subs	r1, r1, r5
 9e6:	ea4f 4815 	mov.w	r8, r5, lsr #16
 9ea:	fa1f f985 	uxth.w	r9, r5
 9ee:	fbb1 fef8 	udiv	lr, r1, r8
 9f2:	fb08 111e 	mls	r1, r8, lr, r1
 9f6:	fb09 f00e 	mul.w	r0, r9, lr
 9fa:	ea4f 4c14 	mov.w	ip, r4, lsr #16
 9fe:	ea4c 4301 	orr.w	r3, ip, r1, lsl #16
 a02:	4298      	cmp	r0, r3
 a04:	d907      	bls.n	a16 <__udivmoddi4+0xea>
 a06:	18eb      	adds	r3, r5, r3
 a08:	f10e 31ff 	add.w	r1, lr, #4294967295	; 0xffffffff
 a0c:	d202      	bcs.n	a14 <__udivmoddi4+0xe8>
 a0e:	4298      	cmp	r0, r3
 a10:	f200 80eb 	bhi.w	bea <__udivmoddi4+0x2be>
 a14:	468e      	mov	lr, r1
 a16:	1a1b      	subs	r3, r3, r0
 a18:	fbb3 f0f8 	udiv	r0, r3, r8
 a1c:	fb08 3310 	mls	r3, r8, r0, r3
 a20:	fb09 f900 	mul.w	r9, r9, r0
 a24:	b2a4      	uxth	r4, r4
 a26:	ea44 4403 	orr.w	r4, r4, r3, lsl #16
 a2a:	45a1      	cmp	r9, r4
 a2c:	d907      	bls.n	a3e <__udivmoddi4+0x112>
 a2e:	192c      	adds	r4, r5, r4
 a30:	f100 33ff 	add.w	r3, r0, #4294967295	; 0xffffffff
 a34:	d202      	bcs.n	a3c <__udivmoddi4+0x110>
 a36:	45a1      	cmp	r9, r4
 a38:	f200 80db 	bhi.w	bf2 <__udivmoddi4+0x2c6>
 a3c:	4618      	mov	r0, r3
 a3e:	eba4 0409 	sub.w	r4, r4, r9
 a42:	ea40 400e 	orr.w	r0, r0, lr, lsl #16
 a46:	e7bd      	b.n	9c4 <__udivmoddi4+0x98>
 a48:	428b      	cmp	r3, r1
 a4a:	d908      	bls.n	a5e <__udivmoddi4+0x132>
 a4c:	2e00      	cmp	r6, #0
 a4e:	d075      	beq.n	b3c <__udivmoddi4+0x210>
 a50:	2700      	movs	r7, #0
 a52:	e9c6 0100 	strd	r0, r1, [r6]
 a56:	4638      	mov	r0, r7
 a58:	4639      	mov	r1, r7
 a5a:	e8bd 87f0 	ldmia.w	sp!, {r4, r5, r6, r7, r8, r9, sl, pc}
 a5e:	fab3 f783 	clz	r7, r3
 a62:	b97f      	cbnz	r7, a84 <__udivmoddi4+0x158>
 a64:	428b      	cmp	r3, r1
 a66:	d302      	bcc.n	a6e <__udivmoddi4+0x142>
 a68:	4282      	cmp	r2, r0
 a6a:	f200 80bc 	bhi.w	be6 <__udivmoddi4+0x2ba>
 a6e:	1a84      	subs	r4, r0, r2
 a70:	eb61 0303 	sbc.w	r3, r1, r3
 a74:	2001      	movs	r0, #1
 a76:	469c      	mov	ip, r3
 a78:	2e00      	cmp	r6, #0
 a7a:	d0a8      	beq.n	9ce <__udivmoddi4+0xa2>
 a7c:	e9c6 4c00 	strd	r4, ip, [r6]
 a80:	e7a5      	b.n	9ce <__udivmoddi4+0xa2>
 a82:	deff      	udf	#255	; 0xff
 a84:	f1c7 0520 	rsb	r5, r7, #32
 a88:	40bb      	lsls	r3, r7
 a8a:	fa22 fc05 	lsr.w	ip, r2, r5
 a8e:	ea4c 0c03 	orr.w	ip, ip, r3
 a92:	fa21 f405 	lsr.w	r4, r1, r5
 a96:	ea4f 4e1c 	mov.w	lr, ip, lsr #16
 a9a:	fbb4 f9fe 	udiv	r9, r4, lr
 a9e:	fa1f f88c 	uxth.w	r8, ip
 aa2:	fb0e 4419 	mls	r4, lr, r9, r4
 aa6:	fa20 f305 	lsr.w	r3, r0, r5
 aaa:	40b9      	lsls	r1, r7
 aac:	fb09 fa08 	mul.w	sl, r9, r8
 ab0:	4319      	orrs	r1, r3
 ab2:	0c0b      	lsrs	r3, r1, #16
 ab4:	ea43 4404 	orr.w	r4, r3, r4, lsl #16
 ab8:	45a2      	cmp	sl, r4
 aba:	fa02 f207 	lsl.w	r2, r2, r7
 abe:	fa00 f307 	lsl.w	r3, r0, r7
 ac2:	d90b      	bls.n	adc <__udivmoddi4+0x1b0>
 ac4:	eb1c 0404 	adds.w	r4, ip, r4
 ac8:	f109 30ff 	add.w	r0, r9, #4294967295	; 0xffffffff
 acc:	f080 8089 	bcs.w	be2 <__udivmoddi4+0x2b6>
 ad0:	45a2      	cmp	sl, r4
 ad2:	f240 8086 	bls.w	be2 <__udivmoddi4+0x2b6>
 ad6:	f1a9 0902 	sub.w	r9, r9, #2
 ada:	4464      	add	r4, ip
 adc:	eba4 040a 	sub.w	r4, r4, sl
 ae0:	fbb4 f0fe 	udiv	r0, r4, lr
 ae4:	fb0e 4410 	mls	r4, lr, r0, r4
 ae8:	fb00 fa08 	mul.w	sl, r0, r8
 aec:	b289      	uxth	r1, r1
 aee:	ea41 4404 	orr.w	r4, r1, r4, lsl #16
 af2:	45a2      	cmp	sl, r4
 af4:	d908      	bls.n	b08 <__udivmoddi4+0x1dc>
 af6:	eb1c 0404 	adds.w	r4, ip, r4
 afa:	f100 31ff 	add.w	r1, r0, #4294967295	; 0xffffffff
 afe:	d26c      	bcs.n	bda <__udivmoddi4+0x2ae>
 b00:	45a2      	cmp	sl, r4
 b02:	d96a      	bls.n	bda <__udivmoddi4+0x2ae>
 b04:	3802      	subs	r0, #2
 b06:	4464      	add	r4, ip
 b08:	ea40 4009 	orr.w	r0, r0, r9, lsl #16
 b0c:	fba0 8902 	umull	r8, r9, r0, r2
 b10:	eba4 040a 	sub.w	r4, r4, sl
 b14:	454c      	cmp	r4, r9
 b16:	4641      	mov	r1, r8
 b18:	46ce      	mov	lr, r9
 b1a:	d355      	bcc.n	bc8 <__udivmoddi4+0x29c>
 b1c:	d052      	beq.n	bc4 <__udivmoddi4+0x298>
 b1e:	2e00      	cmp	r6, #0
 b20:	d06a      	beq.n	bf8 <__udivmoddi4+0x2cc>
 b22:	1a5a      	subs	r2, r3, r1
 b24:	eb64 040e 	sbc.w	r4, r4, lr
 b28:	fa04 f505 	lsl.w	r5, r4, r5
 b2c:	fa22 f307 	lsr.w	r3, r2, r7
 b30:	40fc      	lsrs	r4, r7
 b32:	431d      	orrs	r5, r3
 b34:	e9c6 5400 	strd	r5, r4, [r6]
 b38:	2700      	movs	r7, #0
 b3a:	e748      	b.n	9ce <__udivmoddi4+0xa2>
 b3c:	4637      	mov	r7, r6
 b3e:	4630      	mov	r0, r6
 b40:	e745      	b.n	9ce <__udivmoddi4+0xa2>
 b42:	4618      	mov	r0, r3
 b44:	e73a      	b.n	9bc <__udivmoddi4+0x90>
 b46:	460f      	mov	r7, r1
 b48:	e721      	b.n	98e <__udivmoddi4+0x62>
 b4a:	4095      	lsls	r5, r2
 b4c:	f1c2 0320 	rsb	r3, r2, #32
 b50:	fa21 f003 	lsr.w	r0, r1, r3
 b54:	ea4f 4815 	mov.w	r8, r5, lsr #16
 b58:	fbb0 f7f8 	udiv	r7, r0, r8
 b5c:	fa1f f985 	uxth.w	r9, r5
 b60:	fb08 0e17 	mls	lr, r8, r7, r0
 b64:	fa24 fc03 	lsr.w	ip, r4, r3
 b68:	4091      	lsls	r1, r2
 b6a:	fb07 fa09 	mul.w	sl, r7, r9
 b6e:	ea4c 0101 	orr.w	r1, ip, r1
 b72:	0c08      	lsrs	r0, r1, #16
 b74:	ea40 400e 	orr.w	r0, r0, lr, lsl #16
 b78:	4582      	cmp	sl, r0
 b7a:	fa04 f402 	lsl.w	r4, r4, r2
 b7e:	d907      	bls.n	b90 <__udivmoddi4+0x264>
 b80:	1828      	adds	r0, r5, r0
 b82:	f107 33ff 	add.w	r3, r7, #4294967295	; 0xffffffff
 b86:	d22a      	bcs.n	bde <__udivmoddi4+0x2b2>
 b88:	4582      	cmp	sl, r0
 b8a:	d928      	bls.n	bde <__udivmoddi4+0x2b2>
 b8c:	3f02      	subs	r7, #2
 b8e:	4428      	add	r0, r5
 b90:	eba0 000a 	sub.w	r0, r0, sl
 b94:	fbb0 fcf8 	udiv	ip, r0, r8
 b98:	fb08 001c 	mls	r0, r8, ip, r0
 b9c:	fb0c f309 	mul.w	r3, ip, r9
 ba0:	b289      	uxth	r1, r1
 ba2:	ea41 4100 	orr.w	r1, r1, r0, lsl #16
 ba6:	428b      	cmp	r3, r1
 ba8:	d908      	bls.n	bbc <__udivmoddi4+0x290>
 baa:	1869      	adds	r1, r5, r1
 bac:	f10c 30ff 	add.w	r0, ip, #4294967295	; 0xffffffff
 bb0:	d211      	bcs.n	bd6 <__udivmoddi4+0x2aa>
 bb2:	428b      	cmp	r3, r1
 bb4:	d90f      	bls.n	bd6 <__udivmoddi4+0x2aa>
 bb6:	f1ac 0c02 	sub.w	ip, ip, #2
 bba:	4429      	add	r1, r5
 bbc:	1ac9      	subs	r1, r1, r3
 bbe:	ea4c 4707 	orr.w	r7, ip, r7, lsl #16
 bc2:	e714      	b.n	9ee <__udivmoddi4+0xc2>
 bc4:	4543      	cmp	r3, r8
 bc6:	d2aa      	bcs.n	b1e <__udivmoddi4+0x1f2>
 bc8:	ebb8 0102 	subs.w	r1, r8, r2
 bcc:	eb69 020c 	sbc.w	r2, r9, ip
 bd0:	3801      	subs	r0, #1
 bd2:	4696      	mov	lr, r2
 bd4:	e7a3      	b.n	b1e <__udivmoddi4+0x1f2>
 bd6:	4684      	mov	ip, r0
 bd8:	e7f0      	b.n	bbc <__udivmoddi4+0x290>
 bda:	4608      	mov	r0, r1
 bdc:	e794      	b.n	b08 <__udivmoddi4+0x1dc>
 bde:	461f      	mov	r7, r3
 be0:	e7d6      	b.n	b90 <__udivmoddi4+0x264>
 be2:	4681      	mov	r9, r0
 be4:	e77a      	b.n	adc <__udivmoddi4+0x1b0>
 be6:	4638      	mov	r0, r7
 be8:	e746      	b.n	a78 <__udivmoddi4+0x14c>
 bea:	f1ae 0e02 	sub.w	lr, lr, #2
 bee:	442b      	add	r3, r5
 bf0:	e711      	b.n	a16 <__udivmoddi4+0xea>
 bf2:	3802      	subs	r0, #2
 bf4:	442c      	add	r4, r5
 bf6:	e722      	b.n	a3e <__udivmoddi4+0x112>
 bf8:	4637      	mov	r7, r6
 bfa:	e6e8      	b.n	9ce <__udivmoddi4+0xa2>

00000bfc <__aeabi_ldiv0>:
 bfc:	4770      	bx	lr
 bfe:	bf00      	nop

00000c00 <_ZN4r2d27can_bus6detailL13_can_bit_timeE>:
 c00:	0308 0202 4b03 0209 0303 4302 030a 0303     .....K.....C....
 c10:	4603 040b 0303 4803 030c 0404 4303 040d     .F.....H.....C..
 c20:	0404 4d03 040e 0504 4003 040f 0505 4303     ...M.....@.....C
 c30:	0510 0505 4503 0611 0505 4703 0512 0606     .....E.....G....
 c40:	4303 0613 0606 4403 0714 0606 4603 0815     .C.....D.....F..
 c50:	0606 4703 0716 0707 4403 0817 0708 4603     ...G.....D.....F
 c60:	0718 0808 4303 0819 0808 4403               .....C.....D
