	.cpu cortex-m3
	.eabi_attribute 20, 1
	.eabi_attribute 21, 1
	.eabi_attribute 23, 3
	.eabi_attribute 24, 1
	.eabi_attribute 25, 1
	.eabi_attribute 26, 1
	.eabi_attribute 30, 4
	.eabi_attribute 34, 1
	.eabi_attribute 18, 4
	.file	"main.cpp"
	.text
	.section	.text._ZN6sam3xa10SystemInitEv,"axG",%progbits,_ZN6sam3xa10SystemInitEv,comdat
	.align	1
	.weak	_ZN6sam3xa10SystemInitEv
	.arch armv7-m
	.syntax unified
	.thumb
	.thumb_func
	.fpu softvfp
	.type	_ZN6sam3xa10SystemInitEv, %function
_ZN6sam3xa10SystemInitEv:
	@ args = 0, pretend = 0, frame = 0
	@ frame_needed = 0, uses_anonymous_args = 0
	@ link register save eliminated.
	mov	r3, #1024
	ldr	r2, .L21
	str	r3, [r2]
	str	r3, [r2, #512]
	ldr	r3, .L21+4
	ldr	r2, [r3, #32]
	lsls	r2, r2, #7
	bmi	.L2
	ldr	r2, .L21+8
	str	r2, [r3, #32]
.L3:
	ldr	r2, [r3, #104]
	lsls	r0, r2, #31
	bpl	.L3
.L2:
	ldr	r2, .L21+12
	str	r2, [r3, #32]
.L4:
	ldr	r2, [r3, #104]
	lsls	r1, r2, #15
	bpl	.L4
	ldr	r2, [r3, #48]
	bic	r2, r2, #3
	orr	r2, r2, #1
	str	r2, [r3, #48]
.L5:
	ldr	r2, [r3, #104]
	lsls	r2, r2, #28
	bpl	.L5
	ldr	r2, .L21+16
	str	r2, [r3, #40]
.L6:
	ldr	r2, [r3, #104]
	lsls	r0, r2, #30
	bpl	.L6
	movs	r2, #17
	str	r2, [r3, #48]
.L7:
	ldr	r2, [r3, #104]
	lsls	r1, r2, #28
	bpl	.L7
	movs	r2, #18
	str	r2, [r3, #48]
.L8:
	ldr	r2, [r3, #104]
	lsls	r2, r2, #28
	bpl	.L8
	ldr	r3, .L21+20
	ldr	r2, .L21+24
	str	r2, [r3]
	bx	lr
.L22:
	.align	2
.L21:
	.word	1074661888
	.word	1074660864
	.word	3606537
	.word	20383753
	.word	537739009
	.word	_ZN6sam3xa15SystemCoreClockE
	.word	84000000
	.size	_ZN6sam3xa10SystemInitEv, .-_ZN6sam3xa10SystemInitEv
	.section	.text._ZN3due8pin_infoENS_4pinsE,"ax",%progbits
	.align	1
	.weak	_ZN3due8pin_infoENS_4pinsE
	.syntax unified
	.thumb
	.thumb_func
	.fpu softvfp
	.type	_ZN3due8pin_infoENS_4pinsE, %function
_ZN3due8pin_infoENS_4pinsE:
	@ args = 0, pretend = 0, frame = 0
	@ frame_needed = 0, uses_anonymous_args = 0
	cmp	r0, #81
	push	{r3, lr}
	bls	.L24
	movs	r1, #187
	ldr	r0, .L25
	bl	_ZN5hwlib5panicEPKcj
.L24:
	ldr	r3, .L25+4
	add	r0, r3, r0, lsl #1
	pop	{r3, pc}
.L26:
	.align	2
.L25:
	.word	.LC1
	.word	.LANCHOR0
	.size	_ZN3due8pin_infoENS_4pinsE, .-_ZN3due8pin_infoENS_4pinsE
	.section	.text._ZN3due11ad_pin_infoENS_7ad_pinsE,"ax",%progbits
	.align	1
	.weak	_ZN3due11ad_pin_infoENS_7ad_pinsE
	.syntax unified
	.thumb
	.thumb_func
	.fpu softvfp
	.type	_ZN3due11ad_pin_infoENS_7ad_pinsE, %function
_ZN3due11ad_pin_infoENS_7ad_pinsE:
	@ args = 0, pretend = 0, frame = 0
	@ frame_needed = 0, uses_anonymous_args = 0
	cmp	r0, #11
	push	{r3, lr}
	bls	.L28
	movs	r1, #233
	ldr	r0, .L29
	bl	_ZN5hwlib5panicEPKcj
.L28:
	ldr	r3, .L29+4
	add	r0, r0, r3
	pop	{r3, pc}
.L30:
	.align	2
.L29:
	.word	.LC1
	.word	.LANCHOR1
	.size	_ZN3due11ad_pin_infoENS_7ad_pinsE, .-_ZN3due11ad_pin_infoENS_7ad_pinsE
	.section	.text._ZN3due11ad_seq_infoEm,"ax",%progbits
	.align	1
	.weak	_ZN3due11ad_seq_infoEm
	.syntax unified
	.thumb
	.thumb_func
	.fpu softvfp
	.type	_ZN3due11ad_seq_infoEm, %function
_ZN3due11ad_seq_infoEm:
	@ args = 0, pretend = 0, frame = 0
	@ frame_needed = 0, uses_anonymous_args = 0
	cmp	r0, #13
	push	{r3, lr}
	bls	.L32
	movw	r1, #265
	ldr	r0, .L33
	bl	_ZN5hwlib5panicEPKcj
.L32:
	ldr	r3, .L33+4
	add	r0, r3, r0, lsl #3
	pop	{r3, pc}
.L34:
	.align	2
.L33:
	.word	.LC1
	.word	.LANCHOR2
	.size	_ZN3due11ad_seq_infoEm, .-_ZN3due11ad_seq_infoEm
	.section	.text._ZN3due14port_registersEm,"ax",%progbits
	.align	1
	.weak	_ZN3due14port_registersEm
	.syntax unified
	.thumb
	.thumb_func
	.fpu softvfp
	.type	_ZN3due14port_registersEm, %function
_ZN3due14port_registersEm:
	@ args = 0, pretend = 0, frame = 0
	@ frame_needed = 0, uses_anonymous_args = 0
	mov	r2, #129024
	push	{r3, lr}
	ldr	r3, .L39
	cmp	r0, #3
	str	r2, [r3, #16]
	bls	.L38
	movw	r1, #287
	ldr	r0, .L39+4
	bl	_ZN5hwlib5panicEPKcj
.L38:
	ldr	r3, .L39+8
	ldr	r0, [r3, r0, lsl #2]
	pop	{r3, pc}
.L40:
	.align	2
.L39:
	.word	1074660864
	.word	.LC1
	.word	.LANCHOR3
	.size	_ZN3due14port_registersEm, .-_ZN3due14port_registersEm
	.section	.text._ZN3due12ticks_per_usEv,"ax",%progbits
	.align	1
	.weak	_ZN3due12ticks_per_usEv
	.syntax unified
	.thumb
	.thumb_func
	.fpu softvfp
	.type	_ZN3due12ticks_per_usEv, %function
_ZN3due12ticks_per_usEv:
	@ args = 0, pretend = 0, frame = 0
	@ frame_needed = 0, uses_anonymous_args = 0
	@ link register save eliminated.
	movs	r0, #84
	movs	r1, #0
	bx	lr
	.size	_ZN3due12ticks_per_usEv, .-_ZN3due12ticks_per_usEv
	.section	.text._ZN3due9now_ticksEv,"ax",%progbits
	.align	1
	.weak	_ZN3due9now_ticksEv
	.syntax unified
	.thumb
	.thumb_func
	.fpu softvfp
	.type	_ZN3due9now_ticksEv, %function
_ZN3due9now_ticksEv:
	@ args = 0, pretend = 0, frame = 0
	@ frame_needed = 0, uses_anonymous_args = 0
	push	{r3, r4, r5, lr}
	ldr	r5, .L45
	ldrb	r4, [r5]	@ zero_extendqisi2
	cbnz	r4, .L43
	mov	r2, #32768
	ldr	r3, .L45+4
	str	r2, [r3, #4]
	bl	_ZN6sam3xa10SystemInitEv
	mov	r3, #1024
	ldr	r2, .L45+8
	str	r3, [r2]
	str	r3, [r2, #512]
	mvn	r2, #-16777216
	ldr	r3, .L45+12
	str	r4, [r3]
	str	r2, [r3, #4]
	movs	r2, #5
	str	r4, [r3, #8]
	str	r2, [r3]
	movs	r3, #1
	strb	r3, [r5]
.L43:
	ldr	r3, .L45+12
	ldr	r0, .L45+16
	ldr	r3, [r3, #8]
	ldr	r1, [r0]
	mvns	r3, r3
	bic	r3, r3, #-16777216
	cmp	r1, r3
	ldr	r2, .L45+20
	bls	.L44
	ldrd	r1, r4, [r2]
	adds	r1, r1, #16777216
	adc	r4, r4, #0
	strd	r1, r4, [r2]
.L44:
	str	r3, [r0]
	ldr	r0, [r2]
	ldr	r1, [r2, #4]
	orrs	r0, r0, r3
	pop	{r3, r4, r5, pc}
.L46:
	.align	2
.L45:
	.word	.LANCHOR4
	.word	1074666064
	.word	1074661888
	.word	-536813552
	.word	.LANCHOR5
	.word	.LANCHOR6
	.size	_ZN3due9now_ticksEv, .-_ZN3due9now_ticksEv
	.section	.text._ZN5hwlib9uart_putcEc,"ax",%progbits
	.align	1
	.weak	_ZN5hwlib9uart_putcEc
	.syntax unified
	.thumb
	.thumb_func
	.fpu softvfp
	.type	_ZN5hwlib9uart_putcEc, %function
_ZN5hwlib9uart_putcEc:
	@ args = 0, pretend = 0, frame = 0
	@ frame_needed = 0, uses_anonymous_args = 0
	@ link register save eliminated.
	b	_ZN3due9uart_putcEc
	.size	_ZN5hwlib9uart_putcEc, .-_ZN5hwlib9uart_putcEc
	.section	.text._ZN5hwlib19uart_char_availableEv,"ax",%progbits
	.align	1
	.weak	_ZN5hwlib19uart_char_availableEv
	.syntax unified
	.thumb
	.thumb_func
	.fpu softvfp
	.type	_ZN5hwlib19uart_char_availableEv, %function
_ZN5hwlib19uart_char_availableEv:
	@ args = 0, pretend = 0, frame = 0
	@ frame_needed = 0, uses_anonymous_args = 0
	@ link register save eliminated.
	b	_ZN3due19uart_char_availableEv
	.size	_ZN5hwlib19uart_char_availableEv, .-_ZN5hwlib19uart_char_availableEv
	.section	.text._ZN5hwlib9uart_getcEv,"ax",%progbits
	.align	1
	.weak	_ZN5hwlib9uart_getcEv
	.syntax unified
	.thumb
	.thumb_func
	.fpu softvfp
	.type	_ZN5hwlib9uart_getcEv, %function
_ZN5hwlib9uart_getcEv:
	@ args = 0, pretend = 0, frame = 0
	@ frame_needed = 0, uses_anonymous_args = 0
	@ link register save eliminated.
	b	_ZN3due9uart_getcEv
	.size	_ZN5hwlib9uart_getcEv, .-_ZN5hwlib9uart_getcEv
	.section	.text._ZN4r2d27can_bus12ringbuffer_cINS0_6detail12_can_frame_sELj32EE4pushERKS3_,"axG",%progbits,_ZN4r2d27can_bus12ringbuffer_cINS0_6detail12_can_frame_sELj32EE4pushERKS3_,comdat
	.align	1
	.weak	_ZN4r2d27can_bus12ringbuffer_cINS0_6detail12_can_frame_sELj32EE4pushERKS3_
	.syntax unified
	.thumb
	.thumb_func
	.fpu softvfp
	.type	_ZN4r2d27can_bus12ringbuffer_cINS0_6detail12_can_frame_sELj32EE4pushERKS3_, %function
_ZN4r2d27can_bus12ringbuffer_cINS0_6detail12_can_frame_sELj32EE4pushERKS3_:
	@ args = 0, pretend = 0, frame = 0
	@ frame_needed = 0, uses_anonymous_args = 0
	push	{r4, r5, r6, lr}
	ldr	r3, [r0, #772]
	mov	r6, r1
	cmp	r3, #31
	itt	hi
	movhi	r3, #0
	strhi	r3, [r0, #772]
	ldr	r4, [r0, #772]
	mov	r5, r0
	adds	r3, r4, #1
	str	r3, [r0, #772]
	movs	r3, #24
	mla	r4, r3, r4, r0
	ldmia	r6!, {r0, r1, r2, r3}
	stmia	r4!, {r0, r1, r2, r3}
	ldm	r6, {r0, r1}
	stm	r4, {r0, r1}
	ldr	r3, [r5, #776]
	cmp	r3, #32
	itett	eq
	ldreq	r3, [r5, #768]
	addne	r3, r3, #1
	streq	r3, [r5, #772]
	addeq	r3, r3, #1
	itte	eq
	andeq	r3, r3, #31
	streq	r3, [r5, #768]
	strne	r3, [r5, #776]
	pop	{r4, r5, r6, pc}
	.size	_ZN4r2d27can_bus12ringbuffer_cINS0_6detail12_can_frame_sELj32EE4pushERKS3_, .-_ZN4r2d27can_bus12ringbuffer_cINS0_6detail12_can_frame_sELj32EE4pushERKS3_
	.section	.text._ZN4r2d27can_bus6detail13_set_baudrateINS0_4can0ELNS0_8baudrateE1000000EEEbv,"axG",%progbits,_ZN4r2d27can_bus6detail13_set_baudrateINS0_4can0ELNS0_8baudrateE1000000EEEbv,comdat
	.align	1
	.weak	_ZN4r2d27can_bus6detail13_set_baudrateINS0_4can0ELNS0_8baudrateE1000000EEEbv
	.syntax unified
	.thumb
	.thumb_func
	.fpu softvfp
	.type	_ZN4r2d27can_bus6detail13_set_baudrateINS0_4can0ELNS0_8baudrateE1000000EEEbv, %function
_ZN4r2d27can_bus6detail13_set_baudrateINS0_4can0ELNS0_8baudrateE1000000EEEbv:
	@ args = 0, pretend = 0, frame = 0
	@ frame_needed = 0, uses_anonymous_args = 0
	movs	r2, #8
	ldr	r0, .L62
	push	{r4, r5, r6, r7, lr}
	mov	r3, r0
	mov	r5, #-1
	mov	r4, r2
	ldr	r7, .L62+4
.L57:
	mul	r6, r7, r2
	udiv	r1, r0, r6
	mls	r1, r6, r1, r0
	cmp	r1, r5
	bcs	.L55
	cbz	r1, .L56
	mov	r5, r1
	mov	r4, r2
.L55:
	adds	r2, r2, #1
	cmp	r2, #26
	bne	.L57
	mov	r2, r4
.L56:
	movs	r4, #6
	ldr	r0, .L62+8
	sub	r1, r2, #8
	mla	r1, r4, r1, r0
	ldrb	r4, [r1, #1]	@ zero_extendqisi2
	ldrb	r5, [r1, #2]	@ zero_extendqisi2
	ldrb	r6, [r1, #3]	@ zero_extendqisi2
	ldrb	r0, [r1, #4]	@ zero_extendqisi2
	ldr	r1, .L62+12
	ldr	r7, [r1]
	bic	r7, r7, #1
	str	r7, [r1]
	ldr	r7, [r1, #16]
	ldr	r7, .L62+4
	muls	r2, r7, r2
	udiv	r3, r3, r2
	subs	r3, r3, #1
	subs	r2, r6, #1
	lsls	r3, r3, #16
	and	r2, r2, #7
	and	r3, r3, #8323072
	orrs	r3, r3, r2
	subs	r2, r5, #1
	lsls	r2, r2, #4
	and	r2, r2, #112
	orrs	r3, r3, r2
	subs	r2, r4, #1
	lsls	r2, r2, #8
	and	r2, r2, #1792
	orrs	r3, r3, r2
	subs	r2, r0, #1
	lsls	r2, r2, #12
	and	r2, r2, #12288
	orrs	r3, r3, r2
	str	r3, [r1, #20]
	movs	r0, #1
	pop	{r4, r5, r6, r7, pc}
.L63:
	.align	2
.L62:
	.word	84000000
	.word	1000000
	.word	.LANCHOR7
	.word	1074479104
	.size	_ZN4r2d27can_bus6detail13_set_baudrateINS0_4can0ELNS0_8baudrateE1000000EEEbv, .-_ZN4r2d27can_bus6detail13_set_baudrateINS0_4can0ELNS0_8baudrateE1000000EEEbv
	.section	.text._ZN4r2d27can_bus6detail21_set_mailbox_tx_countINS0_4can0EEEvh,"axG",%progbits,_ZN4r2d27can_bus6detail21_set_mailbox_tx_countINS0_4can0EEEvh,comdat
	.align	1
	.weak	_ZN4r2d27can_bus6detail21_set_mailbox_tx_countINS0_4can0EEEvh
	.syntax unified
	.thumb
	.thumb_func
	.fpu softvfp
	.type	_ZN4r2d27can_bus6detail21_set_mailbox_tx_countINS0_4can0EEEvh, %function
_ZN4r2d27can_bus6detail21_set_mailbox_tx_countINS0_4can0EEEvh:
	@ args = 0, pretend = 0, frame = 0
	@ frame_needed = 0, uses_anonymous_args = 0
	movs	r2, #0
	push	{r4, r5, r6, r7, lr}
	mov	r6, r2
	ldr	r7, .L72
	ldr	r5, .L72+4
.L66:
	cmp	r0, r2
	mov	r4, r0
	bgt	.L71
	ldr	r5, .L72+4
	ldr	r0, .L72
.L65:
	cmp	r4, #7
	bgt	.L64
	lsls	r2, r4, #5
	add	r3, r2, #1073758208
	add	r3, r3, #720896
	ldr	r1, [r3, #512]
	adds	r4, r4, #1
	bic	r1, r1, #117440512
	orr	r1, r1, #50331648
	str	r1, [r3, #512]
	ldr	r1, [r3, #512]
	bic	r1, r1, #983040
	orr	r1, r1, #655360
	str	r1, [r3, #512]
	str	r5, [r3, #516]
	adds	r3, r0, r2
	ldr	r2, [r3, #520]
	bic	r2, r2, #536870912
	str	r2, [r3, #520]
	b	.L65
.L71:
	lsls	r3, r2, #5
	add	r1, r3, #1073758208
	add	r1, r1, #720896
	ldr	r4, [r1, #512]
	add	r3, r3, r7
	bic	r4, r4, #117440512
	orr	r4, r4, #16777216
	str	r4, [r1, #512]
	str	r6, [r3, #520]
	str	r5, [r1, #516]
	ldr	r1, [r3, #520]
	adds	r2, r2, #1
	bic	r1, r1, #536870912
	str	r1, [r3, #520]
	b	.L66
.L64:
	pop	{r4, r5, r6, r7, pc}
.L73:
	.align	2
.L72:
	.word	1074479104
	.word	536610815
	.size	_ZN4r2d27can_bus6detail21_set_mailbox_tx_countINS0_4can0EEEvh, .-_ZN4r2d27can_bus6detail21_set_mailbox_tx_countINS0_4can0EEEvh
	.section	.text._ZN4r2d27can_bus6detail13_init_mailboxINS0_4can0EEEvh,"axG",%progbits,_ZN4r2d27can_bus6detail13_init_mailboxINS0_4can0EEEvh,comdat
	.align	1
	.weak	_ZN4r2d27can_bus6detail13_init_mailboxINS0_4can0EEEvh
	.syntax unified
	.thumb
	.thumb_func
	.fpu softvfp
	.type	_ZN4r2d27can_bus6detail13_init_mailboxINS0_4can0EEEvh, %function
_ZN4r2d27can_bus6detail13_init_mailboxINS0_4can0EEEvh:
	@ args = 0, pretend = 0, frame = 0
	@ frame_needed = 0, uses_anonymous_args = 0
	@ link register save eliminated.
	movs	r3, #0
	lsls	r0, r0, #5
	add	r2, r0, #1073758208
	add	r2, r2, #720896
	str	r3, [r2, #512]
	str	r3, [r2, #516]
	str	r3, [r2, #520]
	str	r3, [r2, #532]
	str	r3, [r2, #536]
	str	r3, [r2, #540]
	bx	lr
	.size	_ZN4r2d27can_bus6detail13_init_mailboxINS0_4can0EEEvh, .-_ZN4r2d27can_bus6detail13_init_mailboxINS0_4can0EEEvh
	.section	.text._ZN4r2d27can_bus10controllerINS0_4can0EE4initILNS0_8baudrateE1000000EEEbv,"axG",%progbits,_ZN4r2d27can_bus10controllerINS0_4can0EE4initILNS0_8baudrateE1000000EEEbv,comdat
	.align	1
	.weak	_ZN4r2d27can_bus10controllerINS0_4can0EE4initILNS0_8baudrateE1000000EEEbv
	.syntax unified
	.thumb
	.thumb_func
	.fpu softvfp
	.type	_ZN4r2d27can_bus10controllerINS0_4can0EE4initILNS0_8baudrateE1000000EEEbv, %function
_ZN4r2d27can_bus10controllerINS0_4can0EE4initILNS0_8baudrateE1000000EEEbv:
	@ args = 0, pretend = 0, frame = 0
	@ frame_needed = 0, uses_anonymous_args = 0
	mov	r2, #2048
	movs	r1, #192
	ldr	r3, .L85
	push	{r4, lr}
	str	r2, [r3, #256]
	ldr	r3, .L85+4
	strb	r1, [r3, #811]
	movs	r1, #1
	str	r2, [r3, #4]
	ldr	r3, .L85+8
	str	r1, [r3, #68]
	ldr	r2, [r3, #112]
	ldr	r0, [r3, #112]
	ands	r2, r2, r0
	bic	r2, r2, #1
	str	r2, [r3, #112]
	str	r1, [r3, #96]
	str	r1, [r3, #4]
	movs	r1, #2
	str	r1, [r3, #68]
	ldr	r2, [r3, #112]
	ldr	r0, [r3, #112]
	ands	r2, r2, r0
	bic	r2, r2, #2
	str	r2, [r3, #112]
	str	r1, [r3, #96]
	str	r1, [r3, #4]
	bl	_ZN4r2d27can_bus6detail13_set_baudrateINS0_4can0ELNS0_8baudrateE1000000EEEbv
	cbz	r0, .L76
	movs	r4, #0
.L77:
	uxtb	r0, r4
	adds	r4, r4, #1
	bl	_ZN4r2d27can_bus6detail13_init_mailboxINS0_4can0EEEvh
	cmp	r4, #8
	bne	.L77
	mov	r3, #-1
	ldr	r4, .L85+12
	movs	r0, #4
	str	r3, [r4, #8]
	bl	_ZN4r2d27can_bus6detail21_set_mailbox_tx_countINS0_4can0EEEvh
	movs	r0, #0
	ldr	r3, [r4]
	orr	r3, r3, #1
	str	r3, [r4]
	ldr	r3, .L85+16
.L79:
	ldr	r2, [r4, #16]
	adds	r0, r0, #1
	lsls	r2, r2, #10
	bmi	.L78
	cmp	r0, r3
	bne	.L79
.L78:
	subs	r0, r0, r3
	it	ne
	movne	r0, #1
.L76:
	pop	{r4, pc}
.L86:
	.align	2
.L85:
	.word	1074660864
	.word	-536813312
	.word	1074662912
	.word	1074479104
	.word	100000
	.size	_ZN4r2d27can_bus10controllerINS0_4can0EE4initILNS0_8baudrateE1000000EEEbv, .-_ZN4r2d27can_bus10controllerINS0_4can0EE4initILNS0_8baudrateE1000000EEEbv
	.section	.text._ZN4r2d27can_bus9channel_cINS0_4can0ELNS0_8priorityE1EE4initEv,"axG",%progbits,_ZN4r2d27can_bus9channel_cINS0_4can0ELNS0_8priorityE1EE4initEv,comdat
	.align	1
	.weak	_ZN4r2d27can_bus9channel_cINS0_4can0ELNS0_8priorityE1EE4initEv
	.syntax unified
	.thumb
	.thumb_func
	.fpu softvfp
	.type	_ZN4r2d27can_bus9channel_cINS0_4can0ELNS0_8priorityE1EE4initEv, %function
_ZN4r2d27can_bus9channel_cINS0_4can0ELNS0_8priorityE1EE4initEv:
	@ args = 0, pretend = 0, frame = 0
	@ frame_needed = 0, uses_anonymous_args = 0
	push	{r3, lr}
	movs	r0, #2
	bl	_ZN4r2d27can_bus6detail13_init_mailboxINS0_4can0EEEvh
	movs	r0, #3
	bl	_ZN4r2d27can_bus6detail13_init_mailboxINS0_4can0EEEvh
	ldr	r3, .L88
	ldr	r1, .L88+4
	ldr	r2, [r3, #576]
	bic	r2, r2, #117440512
	orr	r2, r2, #50331648
	str	r2, [r3, #576]
	ldr	r2, [r3, #576]
	bic	r2, r2, #983040
	orr	r2, r2, #655360
	str	r2, [r3, #576]
	str	r1, [r3, #580]
	ldr	r2, [r3, #584]
	bic	r2, r2, #536870912
	str	r2, [r3, #584]
	ldr	r2, [r3, #608]
	bic	r2, r2, #117440512
	orr	r2, r2, #16777216
	str	r2, [r3, #608]
	movs	r2, #0
	str	r2, [r3, #616]
	str	r1, [r3, #612]
	ldr	r2, [r3, #616]
	bic	r2, r2, #536870912
	str	r2, [r3, #616]
	pop	{r3, pc}
.L89:
	.align	2
.L88:
	.word	1074479104
	.word	536610815
	.size	_ZN4r2d27can_bus9channel_cINS0_4can0ELNS0_8priorityE1EE4initEv, .-_ZN4r2d27can_bus9channel_cINS0_4can0ELNS0_8priorityE1EE4initEv
	.section	.text.startup.main,"ax",%progbits
	.align	1
	.global	main
	.syntax unified
	.thumb
	.thumb_func
	.fpu softvfp
	.type	main, %function
main:
	@ args = 0, pretend = 0, frame = 0
	@ frame_needed = 0, uses_anonymous_args = 0
	mov	r2, #32768
	ldr	r3, .L103
	push	{r4, r5, r6, r7, r8, lr}
	ldr	r6, .L103+4
	str	r2, [r3, #4]
	movs	r0, #10
	bl	_ZN5hwlib7wait_msEi
	mov	r8, #4
	bl	_ZN4r2d27can_bus10controllerINS0_4can0EE4initILNS0_8baudrateE1000000EEEbv
	mov	r4, r6
	bl	_ZN4r2d27can_bus9channel_cINS0_4can0ELNS0_8priorityE1EE4initEv
	ldr	r7, .L103+8
.L100:
	ldr	r3, .L103+12
	movs	r0, #1
	ldr	r1, [r3, #768]
	adds	r2, r1, #1
	str	r2, [r3, #768]
	movs	r2, #24
	muls	r2, r1, r2
	str	r0, [r2, r3]
	adds	r1, r2, r3
	movs	r3, #3
	movw	r2, #513
	strb	r3, [r1, #14]
	strb	r3, [r1, #18]
	ldrb	r3, [r6, #14]	@ zero_extendqisi2
	strh	r2, [r1, #16]	@ movhi
	str	r8, [r7, #4]
	cbnz	r3, .L91
.L94:
	ldr	r5, .L103+16
.L92:
	ldrb	r0, [r5], #1	@ zero_extendqisi2
	cbz	r0, .L96
	bl	_ZN5hwlib9uart_putcEc
	b	.L92
.L91:
	movs	r3, #0
	ldr	r5, [r6, #4]
	ldr	r2, .L103+16
.L93:
	ldrb	r1, [r2, #1]!	@ zero_extendqisi2
	adds	r3, r3, #1
	cmp	r1, #0
	bne	.L93
	subs	r5, r5, r3
.L95:
	cmp	r5, #0
	ble	.L94
	ldrb	r0, [r4, #12]	@ zero_extendqisi2
	bl	_ZN5hwlib9uart_putcEc
	subs	r5, r5, #1
	b	.L95
.L96:
	ldrb	r3, [r4, #14]	@ zero_extendqisi2
	cbnz	r3, .L97
	ldr	r5, [r4, #4]
	ldr	r2, .L103+16
.L98:
	ldrb	r1, [r2, #1]!	@ zero_extendqisi2
	adds	r3, r3, #1
	cmp	r1, #0
	bne	.L98
	subs	r5, r5, r3
.L99:
	cmp	r5, #0
	ble	.L97
	ldrb	r0, [r4, #12]	@ zero_extendqisi2
	bl	_ZN5hwlib9uart_putcEc
	subs	r5, r5, #1
	b	.L99
.L97:
	movs	r3, #0
	mov	r0, #500
	str	r3, [r4, #4]
	bl	_ZN5hwlib7wait_msEi
	b	.L100
.L104:
	.align	2
.L103:
	.word	1074666064
	.word	_ZN5hwlib4coutE
	.word	1074479104
	.word	_ZN4r2d27can_bus9channel_cINS0_4can0ELNS0_8priorityE1EE8tx_queueE
	.word	.LC2
	.size	main, .-main
	.section	.text._ZN4r2d27can_bus6detail19_write_tx_registersINS0_4can0EEEvRKNS1_12_can_frame_sEh,"axG",%progbits,_ZN4r2d27can_bus6detail19_write_tx_registersINS0_4can0EEEvRKNS1_12_can_frame_sEh,comdat
	.align	1
	.weak	_ZN4r2d27can_bus6detail19_write_tx_registersINS0_4can0EEEvRKNS1_12_can_frame_sEh
	.syntax unified
	.thumb
	.thumb_func
	.fpu softvfp
	.type	_ZN4r2d27can_bus6detail19_write_tx_registersINS0_4can0EEEvRKNS1_12_can_frame_sEh, %function
_ZN4r2d27can_bus6detail19_write_tx_registersINS0_4can0EEEvRKNS1_12_can_frame_sEh:
	@ args = 0, pretend = 0, frame = 0
	@ frame_needed = 0, uses_anonymous_args = 0
	push	{r4, r5, r6, lr}
	ldrb	r5, [r0, #10]	@ zero_extendqisi2
	ldr	r4, [r0]
	ldr	r3, .L112
	lsls	r2, r1, #5
	cbz	r5, .L106
	orr	r4, r4, #536870912
.L110:
	adds	r5, r3, r2
	str	r4, [r5, #520]
	ldrb	r4, [r0, #14]	@ zero_extendqisi2
	add	r3, r3, r2
	cmp	r4, #8
	it	cs
	movcs	r4, #8
	mov	r6, r4
	ldr	r5, [r3, #540]
	bic	r4, r5, #983040
	orr	r4, r4, r6, lsl #16
	str	r4, [r3, #540]
	ldrb	r4, [r0, #8]	@ zero_extendqisi2
	cbz	r4, .L108
	ldr	r4, [r3, #528]
	orr	r4, r4, #1048576
.L111:
	add	r5, r2, #1073758208
	str	r4, [r3, #528]
	add	r5, r5, #720896
	ldr	r4, [r5, #512]
	ldrb	r3, [r0, #9]	@ zero_extendqisi2
	bic	r4, r4, #983040
	orr	r4, r4, r3, lsl #16
	str	r4, [r5, #512]
	ldr	r4, .L112
	ldr	r3, [r0, #16]
	add	r2, r2, r4
	str	r3, [r2, #532]
	ldr	r3, [r0, #20]
	str	r3, [r2, #536]
	movs	r3, #1
	lsls	r3, r3, r1
	uxtb	r3, r3
	str	r3, [r4, #36]
	pop	{r4, r5, r6, pc}
.L106:
	ldr	r5, .L112+4
	and	r4, r5, r4, lsl #18
	b	.L110
.L108:
	ldr	r4, [r3, #528]
	bic	r4, r4, #1048576
	b	.L111
.L113:
	.align	2
.L112:
	.word	1074479104
	.word	536608768
	.size	_ZN4r2d27can_bus6detail19_write_tx_registersINS0_4can0EEEvRKNS1_12_can_frame_sEh, .-_ZN4r2d27can_bus6detail19_write_tx_registersINS0_4can0EEEvRKNS1_12_can_frame_sEh
	.section	.text._ZN4r2d27can_bus6detail13_read_mailboxINS0_4can0EEEmhRNS1_12_can_frame_sE,"axG",%progbits,_ZN4r2d27can_bus6detail13_read_mailboxINS0_4can0EEEmhRNS1_12_can_frame_sE,comdat
	.align	1
	.weak	_ZN4r2d27can_bus6detail13_read_mailboxINS0_4can0EEEmhRNS1_12_can_frame_sE
	.syntax unified
	.thumb
	.thumb_func
	.fpu softvfp
	.type	_ZN4r2d27can_bus6detail13_read_mailboxINS0_4can0EEEmhRNS1_12_can_frame_sE, %function
_ZN4r2d27can_bus6detail13_read_mailboxINS0_4can0EEEmhRNS1_12_can_frame_sE:
	@ args = 0, pretend = 0, frame = 0
	@ frame_needed = 0, uses_anonymous_args = 0
	lsls	r3, r0, #5
	add	r2, r3, #1073758208
	add	r2, r2, #720896
	push	{r4, r5, lr}
	ldr	r4, [r2, #528]
	ldr	r2, [r2, #520]
	and	r0, r4, #25165824
	cmp	r0, #25165824
	ite	ne
	movne	r0, #0
	moveq	r0, #2
	ands	r5, r2, #536870912
	ittte	ne
	bicne	r2, r2, #-536870912
	strne	r2, [r1]
	movne	r2, #1
	ubfxeq	r2, r2, #18, #11
	add	r3, r3, #1073758208
	itee	ne
	strbne	r2, [r1, #10]
	streq	r2, [r1]
	strbeq	r5, [r1, #10]
	add	r3, r3, #720896
	ldr	r2, [r3, #524]
	strh	r4, [r1, #12]	@ movhi
	str	r2, [r1, #4]
	ubfx	r2, r4, #16, #4
	strb	r2, [r1, #14]
	ldr	r2, [r3, #528]
	ubfx	r2, r2, #20, #1
	strb	r2, [r1, #8]
	ldr	r2, [r3, #532]
	str	r2, [r1, #16]
	ldr	r2, [r3, #536]
	str	r2, [r1, #20]
	ldr	r2, [r3, #528]
	tst	r2, #16777216
	ldr	r2, [r3, #540]
	it	ne
	movne	r0, #3
	orr	r2, r2, #8388608
	str	r2, [r3, #540]
	pop	{r4, r5, pc}
	.size	_ZN4r2d27can_bus6detail13_read_mailboxINS0_4can0EEEmhRNS1_12_can_frame_sE, .-_ZN4r2d27can_bus6detail13_read_mailboxINS0_4can0EEEmhRNS1_12_can_frame_sE
	.section	.text._ZN4r2d27can_bus9channel_cINS0_4can0ELNS0_8priorityE0EE16handle_interruptEh,"axG",%progbits,_ZN4r2d27can_bus9channel_cINS0_4can0ELNS0_8priorityE0EE16handle_interruptEh,comdat
	.align	1
	.weak	_ZN4r2d27can_bus9channel_cINS0_4can0ELNS0_8priorityE0EE16handle_interruptEh
	.syntax unified
	.thumb
	.thumb_func
	.fpu softvfp
	.type	_ZN4r2d27can_bus9channel_cINS0_4can0ELNS0_8priorityE0EE16handle_interruptEh, %function
_ZN4r2d27can_bus9channel_cINS0_4can0ELNS0_8priorityE0EE16handle_interruptEh:
	@ args = 0, pretend = 0, frame = 24
	@ frame_needed = 0, uses_anonymous_args = 0
	ldr	r2, .L129
	push	{r4, r5, lr}
	add	r1, r2, r0, lsl #5
	ldr	r1, [r1, #528]
	sub	sp, sp, #28
	lsls	r1, r1, #8
	mov	r3, r0
	bpl	.L121
	adds	r3, r3, #16
	lsls	r3, r3, #5
	ldr	r3, [r2, r3]
	ubfx	r3, r3, #24, #3
	cmp	r3, #4
	bhi	.L121
	cmp	r3, #3
	bne	.L123
	ldr	r3, .L129+4
	ldr	r4, [r3, #768]
	cbz	r4, .L124
	movs	r2, #24
	mov	r5, sp
	subs	r4, r4, #1
	str	r4, [r3, #768]
	mla	r4, r2, r4, r3
	ldmia	r4!, {r0, r1, r2, r3}
	stmia	r5!, {r0, r1, r2, r3}
	ldm	r4, {r0, r1}
	stm	r5, {r0, r1}
	movs	r1, #0
	mov	r0, sp
	bl	_ZN4r2d27can_bus6detail19_write_tx_registersINS0_4can0EEEvRKNS1_12_can_frame_sEh
.L121:
	add	sp, sp, #28
	@ sp needed
	pop	{r4, r5, pc}
.L124:
	movs	r3, #1
	str	r3, [r2, #8]
	b	.L121
.L123:
	mov	r1, sp
	bl	_ZN4r2d27can_bus6detail13_read_mailboxINS0_4can0EEEmhRNS1_12_can_frame_sE
	mov	r1, sp
	ldr	r0, .L129+8
	bl	_ZN4r2d27can_bus12ringbuffer_cINS0_6detail12_can_frame_sELj32EE4pushERKS3_
	b	.L121
.L130:
	.align	2
.L129:
	.word	1074479104
	.word	_ZN4r2d27can_bus9channel_cINS0_4can0ELNS0_8priorityE0EE8tx_queueE
	.word	_ZN4r2d27can_bus9channel_cINS0_4can0ELNS0_8priorityE0EE9rx_bufferE
	.size	_ZN4r2d27can_bus9channel_cINS0_4can0ELNS0_8priorityE0EE16handle_interruptEh, .-_ZN4r2d27can_bus9channel_cINS0_4can0ELNS0_8priorityE0EE16handle_interruptEh
	.section	.text._ZN4r2d27can_bus9channel_cINS0_4can0ELNS0_8priorityE2EE16handle_interruptEh,"axG",%progbits,_ZN4r2d27can_bus9channel_cINS0_4can0ELNS0_8priorityE2EE16handle_interruptEh,comdat
	.align	1
	.weak	_ZN4r2d27can_bus9channel_cINS0_4can0ELNS0_8priorityE2EE16handle_interruptEh
	.syntax unified
	.thumb
	.thumb_func
	.fpu softvfp
	.type	_ZN4r2d27can_bus9channel_cINS0_4can0ELNS0_8priorityE2EE16handle_interruptEh, %function
_ZN4r2d27can_bus9channel_cINS0_4can0ELNS0_8priorityE2EE16handle_interruptEh:
	@ args = 0, pretend = 0, frame = 24
	@ frame_needed = 0, uses_anonymous_args = 0
	ldr	r2, .L139
	push	{r4, r5, lr}
	add	r1, r2, r0, lsl #5
	ldr	r1, [r1, #528]
	sub	sp, sp, #28
	lsls	r1, r1, #8
	mov	r3, r0
	bpl	.L131
	adds	r3, r3, #16
	lsls	r3, r3, #5
	ldr	r3, [r2, r3]
	ubfx	r3, r3, #24, #3
	cmp	r3, #4
	bhi	.L131
	cmp	r3, #3
	bne	.L133
	ldr	r3, .L139+4
	ldr	r4, [r3, #768]
	cbz	r4, .L134
	movs	r2, #24
	mov	r5, sp
	subs	r4, r4, #1
	str	r4, [r3, #768]
	mla	r4, r2, r4, r3
	ldmia	r4!, {r0, r1, r2, r3}
	stmia	r5!, {r0, r1, r2, r3}
	ldm	r4, {r0, r1}
	stm	r5, {r0, r1}
	movs	r1, #4
	mov	r0, sp
	bl	_ZN4r2d27can_bus6detail19_write_tx_registersINS0_4can0EEEvRKNS1_12_can_frame_sEh
.L131:
	add	sp, sp, #28
	@ sp needed
	pop	{r4, r5, pc}
.L134:
	movs	r3, #16
	str	r3, [r2, #8]
	b	.L131
.L133:
	mov	r1, sp
	bl	_ZN4r2d27can_bus6detail13_read_mailboxINS0_4can0EEEmhRNS1_12_can_frame_sE
	mov	r1, sp
	ldr	r0, .L139+8
	bl	_ZN4r2d27can_bus12ringbuffer_cINS0_6detail12_can_frame_sELj32EE4pushERKS3_
	b	.L131
.L140:
	.align	2
.L139:
	.word	1074479104
	.word	_ZN4r2d27can_bus9channel_cINS0_4can0ELNS0_8priorityE2EE8tx_queueE
	.word	_ZN4r2d27can_bus9channel_cINS0_4can0ELNS0_8priorityE2EE9rx_bufferE
	.size	_ZN4r2d27can_bus9channel_cINS0_4can0ELNS0_8priorityE2EE16handle_interruptEh, .-_ZN4r2d27can_bus9channel_cINS0_4can0ELNS0_8priorityE2EE16handle_interruptEh
	.section	.text._ZN4r2d27can_bus9channel_cINS0_4can0ELNS0_8priorityE1EE16handle_interruptEh,"axG",%progbits,_ZN4r2d27can_bus9channel_cINS0_4can0ELNS0_8priorityE1EE16handle_interruptEh,comdat
	.align	1
	.weak	_ZN4r2d27can_bus9channel_cINS0_4can0ELNS0_8priorityE1EE16handle_interruptEh
	.syntax unified
	.thumb
	.thumb_func
	.fpu softvfp
	.type	_ZN4r2d27can_bus9channel_cINS0_4can0ELNS0_8priorityE1EE16handle_interruptEh, %function
_ZN4r2d27can_bus9channel_cINS0_4can0ELNS0_8priorityE1EE16handle_interruptEh:
	@ args = 0, pretend = 0, frame = 24
	@ frame_needed = 0, uses_anonymous_args = 0
	ldr	r2, .L149
	push	{r4, r5, lr}
	add	r1, r2, r0, lsl #5
	ldr	r1, [r1, #528]
	sub	sp, sp, #28
	lsls	r1, r1, #8
	mov	r3, r0
	bpl	.L141
	adds	r3, r3, #16
	lsls	r3, r3, #5
	ldr	r3, [r2, r3]
	ubfx	r3, r3, #24, #3
	cmp	r3, #4
	bhi	.L141
	cmp	r3, #3
	bne	.L143
	ldr	r3, .L149+4
	ldr	r4, [r3, #768]
	cbz	r4, .L144
	movs	r2, #24
	mov	r5, sp
	subs	r4, r4, #1
	str	r4, [r3, #768]
	mla	r4, r2, r4, r3
	ldmia	r4!, {r0, r1, r2, r3}
	stmia	r5!, {r0, r1, r2, r3}
	ldm	r4, {r0, r1}
	stm	r5, {r0, r1}
	movs	r1, #2
	mov	r0, sp
	bl	_ZN4r2d27can_bus6detail19_write_tx_registersINS0_4can0EEEvRKNS1_12_can_frame_sEh
.L141:
	add	sp, sp, #28
	@ sp needed
	pop	{r4, r5, pc}
.L144:
	movs	r3, #4
	str	r3, [r2, #8]
	b	.L141
.L143:
	mov	r1, sp
	bl	_ZN4r2d27can_bus6detail13_read_mailboxINS0_4can0EEEmhRNS1_12_can_frame_sE
	mov	r1, sp
	ldr	r0, .L149+8
	bl	_ZN4r2d27can_bus12ringbuffer_cINS0_6detail12_can_frame_sELj32EE4pushERKS3_
	b	.L141
.L150:
	.align	2
.L149:
	.word	1074479104
	.word	_ZN4r2d27can_bus9channel_cINS0_4can0ELNS0_8priorityE1EE8tx_queueE
	.word	_ZN4r2d27can_bus9channel_cINS0_4can0ELNS0_8priorityE1EE9rx_bufferE
	.size	_ZN4r2d27can_bus9channel_cINS0_4can0ELNS0_8priorityE1EE16handle_interruptEh, .-_ZN4r2d27can_bus9channel_cINS0_4can0ELNS0_8priorityE1EE16handle_interruptEh
	.section	.text._ZN4r2d27can_bus6detail10_route_isrINS0_4can0EEEvm,"axG",%progbits,_ZN4r2d27can_bus6detail10_route_isrINS0_4can0EEEvm,comdat
	.align	1
	.weak	_ZN4r2d27can_bus6detail10_route_isrINS0_4can0EEEvm
	.syntax unified
	.thumb
	.thumb_func
	.fpu softvfp
	.type	_ZN4r2d27can_bus6detail10_route_isrINS0_4can0EEEvm, %function
_ZN4r2d27can_bus6detail10_route_isrINS0_4can0EEEvm:
	@ args = 0, pretend = 0, frame = 0
	@ frame_needed = 0, uses_anonymous_args = 0
	push	{r4, lr}
	mov	r4, r0
	lsls	r0, r4, #31
	bpl	.L152
	movs	r0, #0
	bl	_ZN4r2d27can_bus9channel_cINS0_4can0ELNS0_8priorityE0EE16handle_interruptEh
.L152:
	lsls	r1, r4, #30
	bpl	.L153
	movs	r0, #1
	bl	_ZN4r2d27can_bus9channel_cINS0_4can0ELNS0_8priorityE0EE16handle_interruptEh
.L153:
	lsls	r2, r4, #29
	bpl	.L154
	movs	r0, #2
	bl	_ZN4r2d27can_bus9channel_cINS0_4can0ELNS0_8priorityE1EE16handle_interruptEh
.L154:
	lsls	r3, r4, #28
	bpl	.L155
	movs	r0, #3
	bl	_ZN4r2d27can_bus9channel_cINS0_4can0ELNS0_8priorityE1EE16handle_interruptEh
.L155:
	lsls	r0, r4, #27
	bpl	.L156
	movs	r0, #4
	bl	_ZN4r2d27can_bus9channel_cINS0_4can0ELNS0_8priorityE2EE16handle_interruptEh
.L156:
	lsls	r1, r4, #26
	bpl	.L157
	movs	r0, #5
	bl	_ZN4r2d27can_bus9channel_cINS0_4can0ELNS0_8priorityE2EE16handle_interruptEh
.L157:
	lsls	r2, r4, #25
	bpl	.L158
	movs	r0, #6
	bl	_ZN4r2d27can_bus9channel_cINS0_4can0ELNS0_8priorityE1EE16handle_interruptEh
.L158:
	lsls	r3, r4, #24
	bpl	.L151
	movs	r0, #7
	bl	_ZN4r2d27can_bus9channel_cINS0_4can0ELNS0_8priorityE1EE16handle_interruptEh
.L151:
	pop	{r4, pc}
	.size	_ZN4r2d27can_bus6detail10_route_isrINS0_4can0EEEvm, .-_ZN4r2d27can_bus6detail10_route_isrINS0_4can0EEEvm
	.section	.text.__CAN0_Handler,"ax",%progbits
	.align	1
	.global	__CAN0_Handler
	.syntax unified
	.thumb
	.thumb_func
	.fpu softvfp
	.type	__CAN0_Handler, %function
__CAN0_Handler:
	@ args = 0, pretend = 0, frame = 0
	@ frame_needed = 0, uses_anonymous_args = 0
	push	{r3, lr}
	ldr	r3, .L185
	ldr	r0, [r3, #16]
	ldr	r3, [r3, #12]
	ands	r0, r0, r3
	bl	_ZN4r2d27can_bus6detail10_route_isrINS0_4can0EEEvm
	pop	{r3, pc}
.L186:
	.align	2
.L185:
	.word	1074479104
	.size	__CAN0_Handler, .-__CAN0_Handler
	.section	.text._ZN4r2d27can_bus6detail19_write_tx_registersINS0_4can1EEEvRKNS1_12_can_frame_sEh,"axG",%progbits,_ZN4r2d27can_bus6detail19_write_tx_registersINS0_4can1EEEvRKNS1_12_can_frame_sEh,comdat
	.align	1
	.weak	_ZN4r2d27can_bus6detail19_write_tx_registersINS0_4can1EEEvRKNS1_12_can_frame_sEh
	.syntax unified
	.thumb
	.thumb_func
	.fpu softvfp
	.type	_ZN4r2d27can_bus6detail19_write_tx_registersINS0_4can1EEEvRKNS1_12_can_frame_sEh, %function
_ZN4r2d27can_bus6detail19_write_tx_registersINS0_4can1EEEvRKNS1_12_can_frame_sEh:
	@ args = 0, pretend = 0, frame = 0
	@ frame_needed = 0, uses_anonymous_args = 0
	push	{r4, r5, r6, lr}
	ldrb	r5, [r0, #10]	@ zero_extendqisi2
	ldr	r4, [r0]
	ldr	r3, .L194
	lsls	r2, r1, #5
	cbz	r5, .L188
	orr	r4, r4, #536870912
.L192:
	adds	r5, r3, r2
	str	r4, [r5, #520]
	ldrb	r4, [r0, #14]	@ zero_extendqisi2
	add	r3, r3, r2
	cmp	r4, #8
	it	cs
	movcs	r4, #8
	mov	r6, r4
	ldr	r5, [r3, #540]
	bic	r4, r5, #983040
	orr	r4, r4, r6, lsl #16
	str	r4, [r3, #540]
	ldrb	r4, [r0, #8]	@ zero_extendqisi2
	cbz	r4, .L190
	ldr	r4, [r3, #528]
	orr	r4, r4, #1048576
.L193:
	add	r5, r2, #1073741824
	str	r4, [r3, #528]
	add	r5, r5, #753664
	ldr	r4, [r5, #512]
	ldrb	r3, [r0, #9]	@ zero_extendqisi2
	bic	r4, r4, #983040
	orr	r4, r4, r3, lsl #16
	str	r4, [r5, #512]
	ldr	r4, .L194
	ldr	r3, [r0, #16]
	add	r2, r2, r4
	str	r3, [r2, #532]
	ldr	r3, [r0, #20]
	str	r3, [r2, #536]
	movs	r3, #1
	lsls	r3, r3, r1
	uxtb	r3, r3
	str	r3, [r4, #36]
	pop	{r4, r5, r6, pc}
.L188:
	ldr	r5, .L194+4
	and	r4, r5, r4, lsl #18
	b	.L192
.L190:
	ldr	r4, [r3, #528]
	bic	r4, r4, #1048576
	b	.L193
.L195:
	.align	2
.L194:
	.word	1074495488
	.word	536608768
	.size	_ZN4r2d27can_bus6detail19_write_tx_registersINS0_4can1EEEvRKNS1_12_can_frame_sEh, .-_ZN4r2d27can_bus6detail19_write_tx_registersINS0_4can1EEEvRKNS1_12_can_frame_sEh
	.section	.text._ZN4r2d27can_bus6detail13_read_mailboxINS0_4can1EEEmhRNS1_12_can_frame_sE,"axG",%progbits,_ZN4r2d27can_bus6detail13_read_mailboxINS0_4can1EEEmhRNS1_12_can_frame_sE,comdat
	.align	1
	.weak	_ZN4r2d27can_bus6detail13_read_mailboxINS0_4can1EEEmhRNS1_12_can_frame_sE
	.syntax unified
	.thumb
	.thumb_func
	.fpu softvfp
	.type	_ZN4r2d27can_bus6detail13_read_mailboxINS0_4can1EEEmhRNS1_12_can_frame_sE, %function
_ZN4r2d27can_bus6detail13_read_mailboxINS0_4can1EEEmhRNS1_12_can_frame_sE:
	@ args = 0, pretend = 0, frame = 0
	@ frame_needed = 0, uses_anonymous_args = 0
	lsls	r3, r0, #5
	add	r2, r3, #1073741824
	add	r2, r2, #753664
	push	{r4, r5, lr}
	ldr	r4, [r2, #528]
	ldr	r2, [r2, #520]
	and	r0, r4, #25165824
	cmp	r0, #25165824
	ite	ne
	movne	r0, #0
	moveq	r0, #2
	ands	r5, r2, #536870912
	ittte	ne
	bicne	r2, r2, #-536870912
	strne	r2, [r1]
	movne	r2, #1
	ubfxeq	r2, r2, #18, #11
	add	r3, r3, #1073741824
	itee	ne
	strbne	r2, [r1, #10]
	streq	r2, [r1]
	strbeq	r5, [r1, #10]
	add	r3, r3, #753664
	ldr	r2, [r3, #524]
	strh	r4, [r1, #12]	@ movhi
	str	r2, [r1, #4]
	ubfx	r2, r4, #16, #4
	strb	r2, [r1, #14]
	ldr	r2, [r3, #528]
	ubfx	r2, r2, #20, #1
	strb	r2, [r1, #8]
	ldr	r2, [r3, #532]
	str	r2, [r1, #16]
	ldr	r2, [r3, #536]
	str	r2, [r1, #20]
	ldr	r2, [r3, #528]
	tst	r2, #16777216
	ldr	r2, [r3, #540]
	it	ne
	movne	r0, #3
	orr	r2, r2, #8388608
	str	r2, [r3, #540]
	pop	{r4, r5, pc}
	.size	_ZN4r2d27can_bus6detail13_read_mailboxINS0_4can1EEEmhRNS1_12_can_frame_sE, .-_ZN4r2d27can_bus6detail13_read_mailboxINS0_4can1EEEmhRNS1_12_can_frame_sE
	.section	.text._ZN4r2d27can_bus9channel_cINS0_4can1ELNS0_8priorityE0EE16handle_interruptEh,"axG",%progbits,_ZN4r2d27can_bus9channel_cINS0_4can1ELNS0_8priorityE0EE16handle_interruptEh,comdat
	.align	1
	.weak	_ZN4r2d27can_bus9channel_cINS0_4can1ELNS0_8priorityE0EE16handle_interruptEh
	.syntax unified
	.thumb
	.thumb_func
	.fpu softvfp
	.type	_ZN4r2d27can_bus9channel_cINS0_4can1ELNS0_8priorityE0EE16handle_interruptEh, %function
_ZN4r2d27can_bus9channel_cINS0_4can1ELNS0_8priorityE0EE16handle_interruptEh:
	@ args = 0, pretend = 0, frame = 24
	@ frame_needed = 0, uses_anonymous_args = 0
	ldr	r2, .L211
	push	{r4, r5, lr}
	add	r1, r2, r0, lsl #5
	ldr	r1, [r1, #528]
	sub	sp, sp, #28
	lsls	r1, r1, #8
	mov	r3, r0
	bpl	.L203
	adds	r3, r3, #16
	lsls	r3, r3, #5
	ldr	r3, [r2, r3]
	ubfx	r3, r3, #24, #3
	cmp	r3, #4
	bhi	.L203
	cmp	r3, #3
	bne	.L205
	ldr	r3, .L211+4
	ldr	r4, [r3, #768]
	cbz	r4, .L206
	movs	r2, #24
	mov	r5, sp
	subs	r4, r4, #1
	str	r4, [r3, #768]
	mla	r4, r2, r4, r3
	ldmia	r4!, {r0, r1, r2, r3}
	stmia	r5!, {r0, r1, r2, r3}
	ldm	r4, {r0, r1}
	stm	r5, {r0, r1}
	movs	r1, #0
	mov	r0, sp
	bl	_ZN4r2d27can_bus6detail19_write_tx_registersINS0_4can1EEEvRKNS1_12_can_frame_sEh
.L203:
	add	sp, sp, #28
	@ sp needed
	pop	{r4, r5, pc}
.L206:
	movs	r3, #1
	str	r3, [r2, #8]
	b	.L203
.L205:
	mov	r1, sp
	bl	_ZN4r2d27can_bus6detail13_read_mailboxINS0_4can1EEEmhRNS1_12_can_frame_sE
	mov	r1, sp
	ldr	r0, .L211+8
	bl	_ZN4r2d27can_bus12ringbuffer_cINS0_6detail12_can_frame_sELj32EE4pushERKS3_
	b	.L203
.L212:
	.align	2
.L211:
	.word	1074495488
	.word	_ZN4r2d27can_bus9channel_cINS0_4can1ELNS0_8priorityE0EE8tx_queueE
	.word	_ZN4r2d27can_bus9channel_cINS0_4can1ELNS0_8priorityE0EE9rx_bufferE
	.size	_ZN4r2d27can_bus9channel_cINS0_4can1ELNS0_8priorityE0EE16handle_interruptEh, .-_ZN4r2d27can_bus9channel_cINS0_4can1ELNS0_8priorityE0EE16handle_interruptEh
	.section	.text._ZN4r2d27can_bus9channel_cINS0_4can1ELNS0_8priorityE2EE16handle_interruptEh,"axG",%progbits,_ZN4r2d27can_bus9channel_cINS0_4can1ELNS0_8priorityE2EE16handle_interruptEh,comdat
	.align	1
	.weak	_ZN4r2d27can_bus9channel_cINS0_4can1ELNS0_8priorityE2EE16handle_interruptEh
	.syntax unified
	.thumb
	.thumb_func
	.fpu softvfp
	.type	_ZN4r2d27can_bus9channel_cINS0_4can1ELNS0_8priorityE2EE16handle_interruptEh, %function
_ZN4r2d27can_bus9channel_cINS0_4can1ELNS0_8priorityE2EE16handle_interruptEh:
	@ args = 0, pretend = 0, frame = 24
	@ frame_needed = 0, uses_anonymous_args = 0
	ldr	r2, .L221
	push	{r4, r5, lr}
	add	r1, r2, r0, lsl #5
	ldr	r1, [r1, #528]
	sub	sp, sp, #28
	lsls	r1, r1, #8
	mov	r3, r0
	bpl	.L213
	adds	r3, r3, #16
	lsls	r3, r3, #5
	ldr	r3, [r2, r3]
	ubfx	r3, r3, #24, #3
	cmp	r3, #4
	bhi	.L213
	cmp	r3, #3
	bne	.L215
	ldr	r3, .L221+4
	ldr	r4, [r3, #768]
	cbz	r4, .L216
	movs	r2, #24
	mov	r5, sp
	subs	r4, r4, #1
	str	r4, [r3, #768]
	mla	r4, r2, r4, r3
	ldmia	r4!, {r0, r1, r2, r3}
	stmia	r5!, {r0, r1, r2, r3}
	ldm	r4, {r0, r1}
	stm	r5, {r0, r1}
	movs	r1, #4
	mov	r0, sp
	bl	_ZN4r2d27can_bus6detail19_write_tx_registersINS0_4can1EEEvRKNS1_12_can_frame_sEh
.L213:
	add	sp, sp, #28
	@ sp needed
	pop	{r4, r5, pc}
.L216:
	movs	r3, #16
	str	r3, [r2, #8]
	b	.L213
.L215:
	mov	r1, sp
	bl	_ZN4r2d27can_bus6detail13_read_mailboxINS0_4can1EEEmhRNS1_12_can_frame_sE
	mov	r1, sp
	ldr	r0, .L221+8
	bl	_ZN4r2d27can_bus12ringbuffer_cINS0_6detail12_can_frame_sELj32EE4pushERKS3_
	b	.L213
.L222:
	.align	2
.L221:
	.word	1074495488
	.word	_ZN4r2d27can_bus9channel_cINS0_4can1ELNS0_8priorityE2EE8tx_queueE
	.word	_ZN4r2d27can_bus9channel_cINS0_4can1ELNS0_8priorityE2EE9rx_bufferE
	.size	_ZN4r2d27can_bus9channel_cINS0_4can1ELNS0_8priorityE2EE16handle_interruptEh, .-_ZN4r2d27can_bus9channel_cINS0_4can1ELNS0_8priorityE2EE16handle_interruptEh
	.section	.text._ZN4r2d27can_bus9channel_cINS0_4can1ELNS0_8priorityE1EE16handle_interruptEh,"axG",%progbits,_ZN4r2d27can_bus9channel_cINS0_4can1ELNS0_8priorityE1EE16handle_interruptEh,comdat
	.align	1
	.weak	_ZN4r2d27can_bus9channel_cINS0_4can1ELNS0_8priorityE1EE16handle_interruptEh
	.syntax unified
	.thumb
	.thumb_func
	.fpu softvfp
	.type	_ZN4r2d27can_bus9channel_cINS0_4can1ELNS0_8priorityE1EE16handle_interruptEh, %function
_ZN4r2d27can_bus9channel_cINS0_4can1ELNS0_8priorityE1EE16handle_interruptEh:
	@ args = 0, pretend = 0, frame = 24
	@ frame_needed = 0, uses_anonymous_args = 0
	ldr	r2, .L231
	push	{r4, r5, lr}
	add	r1, r2, r0, lsl #5
	ldr	r1, [r1, #528]
	sub	sp, sp, #28
	lsls	r1, r1, #8
	mov	r3, r0
	bpl	.L223
	adds	r3, r3, #16
	lsls	r3, r3, #5
	ldr	r3, [r2, r3]
	ubfx	r3, r3, #24, #3
	cmp	r3, #4
	bhi	.L223
	cmp	r3, #3
	bne	.L225
	ldr	r3, .L231+4
	ldr	r4, [r3, #768]
	cbz	r4, .L226
	movs	r2, #24
	mov	r5, sp
	subs	r4, r4, #1
	str	r4, [r3, #768]
	mla	r4, r2, r4, r3
	ldmia	r4!, {r0, r1, r2, r3}
	stmia	r5!, {r0, r1, r2, r3}
	ldm	r4, {r0, r1}
	stm	r5, {r0, r1}
	movs	r1, #2
	mov	r0, sp
	bl	_ZN4r2d27can_bus6detail19_write_tx_registersINS0_4can1EEEvRKNS1_12_can_frame_sEh
.L223:
	add	sp, sp, #28
	@ sp needed
	pop	{r4, r5, pc}
.L226:
	movs	r3, #4
	str	r3, [r2, #8]
	b	.L223
.L225:
	mov	r1, sp
	bl	_ZN4r2d27can_bus6detail13_read_mailboxINS0_4can1EEEmhRNS1_12_can_frame_sE
	mov	r1, sp
	ldr	r0, .L231+8
	bl	_ZN4r2d27can_bus12ringbuffer_cINS0_6detail12_can_frame_sELj32EE4pushERKS3_
	b	.L223
.L232:
	.align	2
.L231:
	.word	1074495488
	.word	_ZN4r2d27can_bus9channel_cINS0_4can1ELNS0_8priorityE1EE8tx_queueE
	.word	_ZN4r2d27can_bus9channel_cINS0_4can1ELNS0_8priorityE1EE9rx_bufferE
	.size	_ZN4r2d27can_bus9channel_cINS0_4can1ELNS0_8priorityE1EE16handle_interruptEh, .-_ZN4r2d27can_bus9channel_cINS0_4can1ELNS0_8priorityE1EE16handle_interruptEh
	.section	.text._ZN4r2d27can_bus6detail10_route_isrINS0_4can1EEEvm,"axG",%progbits,_ZN4r2d27can_bus6detail10_route_isrINS0_4can1EEEvm,comdat
	.align	1
	.weak	_ZN4r2d27can_bus6detail10_route_isrINS0_4can1EEEvm
	.syntax unified
	.thumb
	.thumb_func
	.fpu softvfp
	.type	_ZN4r2d27can_bus6detail10_route_isrINS0_4can1EEEvm, %function
_ZN4r2d27can_bus6detail10_route_isrINS0_4can1EEEvm:
	@ args = 0, pretend = 0, frame = 0
	@ frame_needed = 0, uses_anonymous_args = 0
	push	{r4, lr}
	mov	r4, r0
	lsls	r0, r4, #31
	bpl	.L234
	movs	r0, #0
	bl	_ZN4r2d27can_bus9channel_cINS0_4can1ELNS0_8priorityE0EE16handle_interruptEh
.L234:
	lsls	r1, r4, #30
	bpl	.L235
	movs	r0, #1
	bl	_ZN4r2d27can_bus9channel_cINS0_4can1ELNS0_8priorityE0EE16handle_interruptEh
.L235:
	lsls	r2, r4, #29
	bpl	.L236
	movs	r0, #2
	bl	_ZN4r2d27can_bus9channel_cINS0_4can1ELNS0_8priorityE1EE16handle_interruptEh
.L236:
	lsls	r3, r4, #28
	bpl	.L237
	movs	r0, #3
	bl	_ZN4r2d27can_bus9channel_cINS0_4can1ELNS0_8priorityE1EE16handle_interruptEh
.L237:
	lsls	r0, r4, #27
	bpl	.L238
	movs	r0, #4
	bl	_ZN4r2d27can_bus9channel_cINS0_4can1ELNS0_8priorityE2EE16handle_interruptEh
.L238:
	lsls	r1, r4, #26
	bpl	.L239
	movs	r0, #5
	bl	_ZN4r2d27can_bus9channel_cINS0_4can1ELNS0_8priorityE2EE16handle_interruptEh
.L239:
	lsls	r2, r4, #25
	bpl	.L240
	movs	r0, #6
	bl	_ZN4r2d27can_bus9channel_cINS0_4can1ELNS0_8priorityE1EE16handle_interruptEh
.L240:
	lsls	r3, r4, #24
	bpl	.L233
	movs	r0, #7
	bl	_ZN4r2d27can_bus9channel_cINS0_4can1ELNS0_8priorityE1EE16handle_interruptEh
.L233:
	pop	{r4, pc}
	.size	_ZN4r2d27can_bus6detail10_route_isrINS0_4can1EEEvm, .-_ZN4r2d27can_bus6detail10_route_isrINS0_4can1EEEvm
	.section	.text.__CAN1_Handler,"ax",%progbits
	.align	1
	.global	__CAN1_Handler
	.syntax unified
	.thumb
	.thumb_func
	.fpu softvfp
	.type	__CAN1_Handler, %function
__CAN1_Handler:
	@ args = 0, pretend = 0, frame = 0
	@ frame_needed = 0, uses_anonymous_args = 0
	push	{r3, lr}
	ldr	r3, .L267
	ldr	r0, [r3, #16]
	ldr	r3, [r3, #12]
	ands	r0, r0, r3
	bl	_ZN4r2d27can_bus6detail10_route_isrINS0_4can1EEEvm
	pop	{r3, pc}
.L268:
	.align	2
.L267:
	.word	1074495488
	.size	__CAN1_Handler, .-__CAN1_Handler
	.weak	_ZN4r2d27can_bus9channel_cINS0_4can1ELNS0_8priorityE2EE9rx_bufferE
	.section	.bss._ZN4r2d27can_bus9channel_cINS0_4can1ELNS0_8priorityE2EE9rx_bufferE,"awG",%nobits,_ZN4r2d27can_bus9channel_cINS0_4can1ELNS0_8priorityE2EE9rx_bufferE,comdat
	.align	2
	.type	_ZN4r2d27can_bus9channel_cINS0_4can1ELNS0_8priorityE2EE9rx_bufferE, %object
	.size	_ZN4r2d27can_bus9channel_cINS0_4can1ELNS0_8priorityE2EE9rx_bufferE, 780
_ZN4r2d27can_bus9channel_cINS0_4can1ELNS0_8priorityE2EE9rx_bufferE:
	.space	780
	.weak	_ZN4r2d27can_bus9channel_cINS0_4can1ELNS0_8priorityE2EE8tx_queueE
	.section	.bss._ZN4r2d27can_bus9channel_cINS0_4can1ELNS0_8priorityE2EE8tx_queueE,"awG",%nobits,_ZN4r2d27can_bus9channel_cINS0_4can1ELNS0_8priorityE2EE8tx_queueE,comdat
	.align	2
	.type	_ZN4r2d27can_bus9channel_cINS0_4can1ELNS0_8priorityE2EE8tx_queueE, %object
	.size	_ZN4r2d27can_bus9channel_cINS0_4can1ELNS0_8priorityE2EE8tx_queueE, 772
_ZN4r2d27can_bus9channel_cINS0_4can1ELNS0_8priorityE2EE8tx_queueE:
	.space	772
	.weak	_ZN4r2d27can_bus9channel_cINS0_4can1ELNS0_8priorityE1EE9rx_bufferE
	.section	.bss._ZN4r2d27can_bus9channel_cINS0_4can1ELNS0_8priorityE1EE9rx_bufferE,"awG",%nobits,_ZN4r2d27can_bus9channel_cINS0_4can1ELNS0_8priorityE1EE9rx_bufferE,comdat
	.align	2
	.type	_ZN4r2d27can_bus9channel_cINS0_4can1ELNS0_8priorityE1EE9rx_bufferE, %object
	.size	_ZN4r2d27can_bus9channel_cINS0_4can1ELNS0_8priorityE1EE9rx_bufferE, 780
_ZN4r2d27can_bus9channel_cINS0_4can1ELNS0_8priorityE1EE9rx_bufferE:
	.space	780
	.weak	_ZN4r2d27can_bus9channel_cINS0_4can1ELNS0_8priorityE1EE8tx_queueE
	.section	.bss._ZN4r2d27can_bus9channel_cINS0_4can1ELNS0_8priorityE1EE8tx_queueE,"awG",%nobits,_ZN4r2d27can_bus9channel_cINS0_4can1ELNS0_8priorityE1EE8tx_queueE,comdat
	.align	2
	.type	_ZN4r2d27can_bus9channel_cINS0_4can1ELNS0_8priorityE1EE8tx_queueE, %object
	.size	_ZN4r2d27can_bus9channel_cINS0_4can1ELNS0_8priorityE1EE8tx_queueE, 772
_ZN4r2d27can_bus9channel_cINS0_4can1ELNS0_8priorityE1EE8tx_queueE:
	.space	772
	.weak	_ZN4r2d27can_bus9channel_cINS0_4can1ELNS0_8priorityE0EE9rx_bufferE
	.section	.bss._ZN4r2d27can_bus9channel_cINS0_4can1ELNS0_8priorityE0EE9rx_bufferE,"awG",%nobits,_ZN4r2d27can_bus9channel_cINS0_4can1ELNS0_8priorityE0EE9rx_bufferE,comdat
	.align	2
	.type	_ZN4r2d27can_bus9channel_cINS0_4can1ELNS0_8priorityE0EE9rx_bufferE, %object
	.size	_ZN4r2d27can_bus9channel_cINS0_4can1ELNS0_8priorityE0EE9rx_bufferE, 780
_ZN4r2d27can_bus9channel_cINS0_4can1ELNS0_8priorityE0EE9rx_bufferE:
	.space	780
	.weak	_ZN4r2d27can_bus9channel_cINS0_4can1ELNS0_8priorityE0EE8tx_queueE
	.section	.bss._ZN4r2d27can_bus9channel_cINS0_4can1ELNS0_8priorityE0EE8tx_queueE,"awG",%nobits,_ZN4r2d27can_bus9channel_cINS0_4can1ELNS0_8priorityE0EE8tx_queueE,comdat
	.align	2
	.type	_ZN4r2d27can_bus9channel_cINS0_4can1ELNS0_8priorityE0EE8tx_queueE, %object
	.size	_ZN4r2d27can_bus9channel_cINS0_4can1ELNS0_8priorityE0EE8tx_queueE, 772
_ZN4r2d27can_bus9channel_cINS0_4can1ELNS0_8priorityE0EE8tx_queueE:
	.space	772
	.weak	_ZN4r2d27can_bus9channel_cINS0_4can0ELNS0_8priorityE2EE9rx_bufferE
	.section	.bss._ZN4r2d27can_bus9channel_cINS0_4can0ELNS0_8priorityE2EE9rx_bufferE,"awG",%nobits,_ZN4r2d27can_bus9channel_cINS0_4can0ELNS0_8priorityE2EE9rx_bufferE,comdat
	.align	2
	.type	_ZN4r2d27can_bus9channel_cINS0_4can0ELNS0_8priorityE2EE9rx_bufferE, %object
	.size	_ZN4r2d27can_bus9channel_cINS0_4can0ELNS0_8priorityE2EE9rx_bufferE, 780
_ZN4r2d27can_bus9channel_cINS0_4can0ELNS0_8priorityE2EE9rx_bufferE:
	.space	780
	.weak	_ZN4r2d27can_bus9channel_cINS0_4can0ELNS0_8priorityE2EE8tx_queueE
	.section	.bss._ZN4r2d27can_bus9channel_cINS0_4can0ELNS0_8priorityE2EE8tx_queueE,"awG",%nobits,_ZN4r2d27can_bus9channel_cINS0_4can0ELNS0_8priorityE2EE8tx_queueE,comdat
	.align	2
	.type	_ZN4r2d27can_bus9channel_cINS0_4can0ELNS0_8priorityE2EE8tx_queueE, %object
	.size	_ZN4r2d27can_bus9channel_cINS0_4can0ELNS0_8priorityE2EE8tx_queueE, 772
_ZN4r2d27can_bus9channel_cINS0_4can0ELNS0_8priorityE2EE8tx_queueE:
	.space	772
	.weak	_ZN4r2d27can_bus9channel_cINS0_4can0ELNS0_8priorityE0EE9rx_bufferE
	.section	.bss._ZN4r2d27can_bus9channel_cINS0_4can0ELNS0_8priorityE0EE9rx_bufferE,"awG",%nobits,_ZN4r2d27can_bus9channel_cINS0_4can0ELNS0_8priorityE0EE9rx_bufferE,comdat
	.align	2
	.type	_ZN4r2d27can_bus9channel_cINS0_4can0ELNS0_8priorityE0EE9rx_bufferE, %object
	.size	_ZN4r2d27can_bus9channel_cINS0_4can0ELNS0_8priorityE0EE9rx_bufferE, 780
_ZN4r2d27can_bus9channel_cINS0_4can0ELNS0_8priorityE0EE9rx_bufferE:
	.space	780
	.weak	_ZN4r2d27can_bus9channel_cINS0_4can0ELNS0_8priorityE0EE8tx_queueE
	.section	.bss._ZN4r2d27can_bus9channel_cINS0_4can0ELNS0_8priorityE0EE8tx_queueE,"awG",%nobits,_ZN4r2d27can_bus9channel_cINS0_4can0ELNS0_8priorityE0EE8tx_queueE,comdat
	.align	2
	.type	_ZN4r2d27can_bus9channel_cINS0_4can0ELNS0_8priorityE0EE8tx_queueE, %object
	.size	_ZN4r2d27can_bus9channel_cINS0_4can0ELNS0_8priorityE0EE8tx_queueE, 772
_ZN4r2d27can_bus9channel_cINS0_4can0ELNS0_8priorityE0EE8tx_queueE:
	.space	772
	.weak	_ZN4r2d27can_bus9channel_cINS0_4can0ELNS0_8priorityE1EE9rx_bufferE
	.section	.bss._ZN4r2d27can_bus9channel_cINS0_4can0ELNS0_8priorityE1EE9rx_bufferE,"awG",%nobits,_ZN4r2d27can_bus9channel_cINS0_4can0ELNS0_8priorityE1EE9rx_bufferE,comdat
	.align	2
	.type	_ZN4r2d27can_bus9channel_cINS0_4can0ELNS0_8priorityE1EE9rx_bufferE, %object
	.size	_ZN4r2d27can_bus9channel_cINS0_4can0ELNS0_8priorityE1EE9rx_bufferE, 780
_ZN4r2d27can_bus9channel_cINS0_4can0ELNS0_8priorityE1EE9rx_bufferE:
	.space	780
	.weak	_ZN4r2d27can_bus9channel_cINS0_4can0ELNS0_8priorityE1EE8tx_queueE
	.section	.bss._ZN4r2d27can_bus9channel_cINS0_4can0ELNS0_8priorityE1EE8tx_queueE,"awG",%nobits,_ZN4r2d27can_bus9channel_cINS0_4can0ELNS0_8priorityE1EE8tx_queueE,comdat
	.align	2
	.type	_ZN4r2d27can_bus9channel_cINS0_4can0ELNS0_8priorityE1EE8tx_queueE, %object
	.size	_ZN4r2d27can_bus9channel_cINS0_4can0ELNS0_8priorityE1EE8tx_queueE, 772
_ZN4r2d27can_bus9channel_cINS0_4can0ELNS0_8priorityE1EE8tx_queueE:
	.space	772
	.weak	_ZN6sam3xa15SystemCoreClockE
	.section	.bss._ZZN3due9now_ticksEvE4high,"aw",%nobits
	.align	3
	.set	.LANCHOR6,. + 0
	.type	_ZZN3due9now_ticksEvE4high, %object
	.size	_ZZN3due9now_ticksEvE4high, 8
_ZZN3due9now_ticksEvE4high:
	.space	8
	.section	.bss._ZZN3due9now_ticksEvE8last_low,"aw",%nobits
	.align	2
	.set	.LANCHOR5,. + 0
	.type	_ZZN3due9now_ticksEvE8last_low, %object
	.size	_ZZN3due9now_ticksEvE8last_low, 4
_ZZN3due9now_ticksEvE8last_low:
	.space	4
	.section	.bss._ZZN3due9now_ticksEvE9init_done,"aw",%nobits
	.set	.LANCHOR4,. + 0
	.type	_ZZN3due9now_ticksEvE9init_done, %object
	.size	_ZZN3due9now_ticksEvE9init_done, 1
_ZZN3due9now_ticksEvE9init_done:
	.space	1
	.section	.data._ZN6sam3xa15SystemCoreClockE,"aw"
	.align	2
	.type	_ZN6sam3xa15SystemCoreClockE, %object
	.size	_ZN6sam3xa15SystemCoreClockE, 4
_ZN6sam3xa15SystemCoreClockE:
	.word	4000000
	.section	.rodata.CSWTCH.124,"a"
	.align	2
	.set	.LANCHOR3,. + 0
	.type	CSWTCH.124, %object
	.size	CSWTCH.124, 16
CSWTCH.124:
	.word	1074662912
	.word	1074663424
	.word	1074663936
	.word	1074664448
	.section	.rodata._ZN3due8pin_infoENS_4pinsE.str1.1,"aMS",%progbits,1
.LC1:
	.ascii	"../../../libraries/hwlib/library/targets/hwlib-ardu"
	.ascii	"ino-due.hpp\000"
	.section	.rodata._ZN4r2d27can_bus6detailL13_can_bit_timeE,"a"
	.set	.LANCHOR7,. + 0
	.type	_ZN4r2d27can_bus6detailL13_can_bit_timeE, %object
	.size	_ZN4r2d27can_bus6detailL13_can_bit_timeE, 108
_ZN4r2d27can_bus6detailL13_can_bit_timeE:
	.byte	8
	.byte	3
	.byte	2
	.byte	2
	.byte	3
	.byte	75
	.byte	9
	.byte	2
	.byte	3
	.byte	3
	.byte	2
	.byte	67
	.byte	10
	.byte	3
	.byte	3
	.byte	3
	.byte	3
	.byte	70
	.byte	11
	.byte	4
	.byte	3
	.byte	3
	.byte	3
	.byte	72
	.byte	12
	.byte	3
	.byte	4
	.byte	4
	.byte	3
	.byte	67
	.byte	13
	.byte	4
	.byte	4
	.byte	4
	.byte	3
	.byte	77
	.byte	14
	.byte	4
	.byte	4
	.byte	5
	.byte	3
	.byte	64
	.byte	15
	.byte	4
	.byte	5
	.byte	5
	.byte	3
	.byte	67
	.byte	16
	.byte	5
	.byte	5
	.byte	5
	.byte	3
	.byte	69
	.byte	17
	.byte	6
	.byte	5
	.byte	5
	.byte	3
	.byte	71
	.byte	18
	.byte	5
	.byte	6
	.byte	6
	.byte	3
	.byte	67
	.byte	19
	.byte	6
	.byte	6
	.byte	6
	.byte	3
	.byte	68
	.byte	20
	.byte	7
	.byte	6
	.byte	6
	.byte	3
	.byte	70
	.byte	21
	.byte	8
	.byte	6
	.byte	6
	.byte	3
	.byte	71
	.byte	22
	.byte	7
	.byte	7
	.byte	7
	.byte	3
	.byte	68
	.byte	23
	.byte	8
	.byte	8
	.byte	7
	.byte	3
	.byte	70
	.byte	24
	.byte	7
	.byte	8
	.byte	8
	.byte	3
	.byte	67
	.byte	25
	.byte	8
	.byte	8
	.byte	8
	.byte	3
	.byte	68
	.section	.rodata._ZZN3due11ad_pin_infoENS_7ad_pinsEE17ad_pin_info_array,"a"
	.set	.LANCHOR1,. + 0
	.type	_ZZN3due11ad_pin_infoENS_7ad_pinsEE17ad_pin_info_array, %object
	.size	_ZZN3due11ad_pin_infoENS_7ad_pinsEE17ad_pin_info_array, 12
_ZZN3due11ad_pin_infoENS_7ad_pinsEE17ad_pin_info_array:
	.byte	7
	.byte	6
	.byte	5
	.byte	4
	.byte	3
	.byte	2
	.byte	1
	.byte	0
	.byte	10
	.byte	11
	.byte	12
	.byte	13
	.section	.rodata._ZZN3due11ad_seq_infoEmE12ad_seq_array,"a"
	.align	2
	.set	.LANCHOR2,. + 0
	.type	_ZZN3due11ad_seq_infoEmE12ad_seq_array, %object
	.size	_ZZN3due11ad_seq_infoEmE12ad_seq_array, 112
_ZZN3due11ad_seq_infoEmE12ad_seq_array:
	.word	-16
	.word	-1
	.word	-225
	.word	-1
	.word	-3329
	.word	-1
	.word	-49153
	.word	-1
	.word	-720897
	.word	-1
	.word	-10485761
	.word	-1
	.word	-150994945
	.word	-1
	.word	2147483647
	.word	-1
	.word	-1
	.word	-8
	.word	-1
	.word	-97
	.word	-1
	.word	-1281
	.word	-1
	.word	-16385
	.word	-1
	.word	-196609
	.word	-1
	.word	-2097153
	.section	.rodata._ZZN3due8pin_infoENS_4pinsEE14pin_info_array,"a"
	.set	.LANCHOR0,. + 0
	.type	_ZZN3due8pin_infoENS_4pinsEE14pin_info_array, %object
	.size	_ZZN3due8pin_infoENS_4pinsEE14pin_info_array, 164
_ZZN3due8pin_infoENS_4pinsEE14pin_info_array:
	.byte	0
	.byte	8
	.byte	0
	.byte	9
	.byte	1
	.byte	25
	.byte	2
	.byte	28
	.byte	2
	.byte	26
	.byte	2
	.byte	25
	.byte	2
	.byte	24
	.byte	2
	.byte	23
	.byte	2
	.byte	22
	.byte	2
	.byte	21
	.byte	2
	.byte	29
	.byte	3
	.byte	7
	.byte	3
	.byte	8
	.byte	1
	.byte	27
	.byte	3
	.byte	4
	.byte	3
	.byte	5
	.byte	0
	.byte	13
	.byte	0
	.byte	12
	.byte	0
	.byte	11
	.byte	0
	.byte	10
	.byte	1
	.byte	12
	.byte	1
	.byte	13
	.byte	1
	.byte	26
	.byte	0
	.byte	14
	.byte	0
	.byte	15
	.byte	3
	.byte	0
	.byte	3
	.byte	1
	.byte	3
	.byte	2
	.byte	3
	.byte	3
	.byte	3
	.byte	6
	.byte	3
	.byte	9
	.byte	0
	.byte	7
	.byte	3
	.byte	10
	.byte	2
	.byte	1
	.byte	2
	.byte	2
	.byte	2
	.byte	3
	.byte	2
	.byte	4
	.byte	2
	.byte	5
	.byte	2
	.byte	6
	.byte	2
	.byte	7
	.byte	2
	.byte	8
	.byte	2
	.byte	9
	.byte	0
	.byte	19
	.byte	0
	.byte	20
	.byte	2
	.byte	19
	.byte	2
	.byte	18
	.byte	2
	.byte	17
	.byte	2
	.byte	16
	.byte	2
	.byte	15
	.byte	2
	.byte	14
	.byte	2
	.byte	13
	.byte	2
	.byte	12
	.byte	1
	.byte	21
	.byte	1
	.byte	14
	.byte	0
	.byte	16
	.byte	0
	.byte	24
	.byte	0
	.byte	23
	.byte	0
	.byte	22
	.byte	0
	.byte	6
	.byte	0
	.byte	4
	.byte	0
	.byte	3
	.byte	0
	.byte	2
	.byte	1
	.byte	17
	.byte	1
	.byte	18
	.byte	1
	.byte	19
	.byte	1
	.byte	20
	.byte	1
	.byte	15
	.byte	1
	.byte	16
	.byte	0
	.byte	1
	.byte	0
	.byte	0
	.byte	1
	.byte	13
	.byte	1
	.byte	12
	.byte	0
	.byte	18
	.byte	0
	.byte	17
	.byte	0
	.byte	9
	.byte	0
	.byte	8
	.byte	1
	.byte	27
	.byte	0
	.byte	27
	.byte	0
	.byte	25
	.byte	0
	.byte	26
	.byte	2
	.byte	29
	.byte	2
	.byte	26
	.section	.rodata.main.str1.1,"aMS",%progbits,1
.LC2:
	.ascii	"Send frame\015\012\000"
	.ident	"GCC: (GNU Tools for Arm Embedded Processors 8-2018-q4-major) 8.2.1 20181213 (release) [gcc-8-branch revision 267074]"
